Archive member included because of file (symbol)

/opt/microchip/xc32/v2.50/bin/bin/../../lib/gcc/pic32mx/4.8.3/../../../../pic32mx/lib/fpu64/libpic32.a(default-on-reset.o)
                              /tmp/ccAtE9dX.o (_on_reset)
/opt/microchip/xc32/v2.50/bin/bin/../../lib/gcc/pic32mx/4.8.3/../../../../pic32mx/lib/fpu64/libpic32.a(default-on-bootstrap.o)
                              /tmp/ccAtE9dX.o (_on_bootstrap)
/opt/microchip/xc32/v2.50/bin/bin/../../lib/gcc/pic32mx/4.8.3/../../../../pic32mx/lib/fpu64/libpic32.a(default-nmi-handler.o)
                              /tmp/ccAtE9dX.o (_nmi_handler)
/opt/microchip/xc32/v2.50/bin/bin/../../lib/gcc/pic32mx/4.8.3/../../../../pic32mx/lib/fpu64/libpic32.a(pic32_data_init.o)
                              /tmp/ccAtE9dX.o (__pic32_data_init)
/opt/microchip/xc32/v2.50/bin/bin/../../lib/gcc/pic32mx/4.8.3/../../../../pic32mx/lib/fpu64/libpic32.a(general-exception.o)
                              /tmp/ccAtE9dX.o (_general_exception_context)
/opt/microchip/xc32/v2.50/bin/bin/../../lib/gcc/pic32mx/4.8.3/../../../../pic32mx/lib/fpu64/libpic32.a(defaultinterrupt.o)
                              /tmp/ccmO7AhX.o (_DefaultInterrupt)
/opt/microchip/xc32/v2.50/bin/bin/../../lib/gcc/pic32mx/4.8.3/../../../../pic32mx/lib/fpu64/libmfd.a(s_cos.o)
                              build/V3_MCF1024/production/_ext/1200941409/state_engine.o (_cosx)
/opt/microchip/xc32/v2.50/bin/bin/../../lib/gcc/pic32mx/4.8.3/../../../../pic32mx/lib/fpu64/libmfd.a(s_fabs.o)
                              build/V3_MCF1024/production/_ext/1639450193/driver_ADC.o (_fabsx)
/opt/microchip/xc32/v2.50/bin/bin/../../lib/gcc/pic32mx/4.8.3/../../../../pic32mx/lib/fpu64/libmfd.a(s_sin.o)
                              build/V3_MCF1024/production/_ext/1200941409/state_engine.o (_sinx)
/opt/microchip/xc32/v2.50/bin/bin/../../lib/gcc/pic32mx/4.8.3/../../../../pic32mx/lib/fpu64/libmfd.a(pic32_w_sqrt.o)
                              build/V3_MCF1024/production/_ext/1639450193/driver_ADC.o (_sqrtx)
/opt/microchip/xc32/v2.50/bin/bin/../../lib/gcc/pic32mx/4.8.3/../../../../pic32mx/lib/fpu64/libmfd.a(sqrtfd.o)
                              /opt/microchip/xc32/v2.50/bin/bin/../../lib/gcc/pic32mx/4.8.3/../../../../pic32mx/lib/fpu64/libmfd.a(pic32_w_sqrt.o) (_sqrtfd)
/opt/microchip/xc32/v2.50/bin/bin/../../lib/gcc/pic32mx/4.8.3/../../../../pic32mx/lib/fpu64/libmfd.a(e_rem_pio2.o)
                              /opt/microchip/xc32/v2.50/bin/bin/../../lib/gcc/pic32mx/4.8.3/../../../../pic32mx/lib/fpu64/libmfd.a(s_cos.o) (__ieee754_rem_pio2)
/opt/microchip/xc32/v2.50/bin/bin/../../lib/gcc/pic32mx/4.8.3/../../../../pic32mx/lib/fpu64/libmfd.a(k_cos.o)
                              /opt/microchip/xc32/v2.50/bin/bin/../../lib/gcc/pic32mx/4.8.3/../../../../pic32mx/lib/fpu64/libmfd.a(s_cos.o) (__kernel_cos)
/opt/microchip/xc32/v2.50/bin/bin/../../lib/gcc/pic32mx/4.8.3/../../../../pic32mx/lib/fpu64/libmfd.a(k_sin.o)
                              /opt/microchip/xc32/v2.50/bin/bin/../../lib/gcc/pic32mx/4.8.3/../../../../pic32mx/lib/fpu64/libmfd.a(s_cos.o) (__kernel_sin)
/opt/microchip/xc32/v2.50/bin/bin/../../lib/gcc/pic32mx/4.8.3/../../../../pic32mx/lib/fpu64/libpic32.a(errno.o)
                              /opt/microchip/xc32/v2.50/bin/bin/../../lib/gcc/pic32mx/4.8.3/../../../../pic32mx/lib/fpu64/libmfd.a(sqrtfd.o) (errno)

Allocating common symbols
Common symbol       size              file

mcpwmPriEventObj    0x8               build/V3_MCF1024/production/_ext/1961884374/plib_mcpwm.o

Microchip PIC32 Memory-Usage Report

kseg0 Program-Memory Usage
section                    address  length [bytes]      (dec)  Description
-------                 ----------  -------------------------  -----------
.text.fast_routines     0x9d000000          0x178         376   
.text._on_reset         0x9d000178            0x8           8   
.app_excpt              0x9d000180           0x10          16  General-Exception 
.rodata                 0x9d000190           0x70         112  Read-only const 
.vectors                0x9d000200           0x50          80   
.dinit                  0x9d000250          0x6c0        1728   
.text.fill_empty_EEPROM 0x9d000910          0x65c        1628   
.text.send_currently_us 0x9d000f6c          0x554        1364   
.text.current_ref_gener 0x9d0014c0          0x4f8        1272   
.text.tune_vehicle_veri 0x9d0019b8          0x488        1160   
.text.__ieee754_rem_pio 0x9d001e40          0x344         836   
.text.tune_powertrain_v 0x9d002184          0x314         788   
.text.slow_routines     0x9d002498          0x30c         780   
.text.tune_state_variab 0x9d0027a4          0x2e8         744   
.text.ADCHS_Initialize  0x9d002a8c          0x2e0         736   
.text.tune_faults       0x9d002d6c          0x2cc         716   
.text.recieve_command_u 0x9d003038          0x260         608   
.text.state_init        0x9d003298          0x250         592   
.text.slow_measurement_ 0x9d0034e8          0x240         576   
.text.drive_init        0x9d003728          0x240         576   
.text.angle_finder      0x9d003968          0x218         536   
.text.slow_measurement_ 0x9d003b80          0x210         528   
.text.find_ang          0x9d003d90          0x210         528   
.text.fault_limits_upda 0x9d003fa0          0x1d8         472   
.text.drive_condition   0x9d004178          0x1d8         472   
.text.fast_measurement_ 0x9d004350          0x1b8         440   
.text.PWM_PRI_Handler   0x9d004508          0x1a0         416   
.text.MCPWM_Initialize  0x9d0046a8          0x18c         396   
.text.fast_measurement_ 0x9d004834          0x14c         332   
.text.current_ref_hold  0x9d004980          0x130         304   
.text.CAN1_MessageRecei 0x9d004ab0          0x12c         300   
.text.update_EEPROM_val 0x9d004bdc          0x12c         300   
.text.CAN1_MessageTrans 0x9d004d08          0x124         292   
.text.__kernel_cos      0x9d004e2c          0x120         288   
.text.send_A2data       0x9d004f4c          0x11c         284   
.text._cosx             0x9d005068          0x118         280   
.text._sinx             0x9d005180          0x118         280   
.text.CAN1_Initialize   0x9d005298          0x110         272   
.text.GPIO_Vmode        0x9d0053a8          0x110         272   
.text.GPIO_Initialize   0x9d0054b8          0x108         264   
.text.EEPROM_Initialize 0x9d0055c0           0xfc         252   
.text.torque_rpm_calcul 0x9d0056bc           0xf0         240   
.text.CAN_Vmode         0x9d0057ac           0xe8         232   
.text.send_A4data       0x9d005894           0xe4         228   
.rodata                 0x9d005978          0x1c0         448  Read-only const 
.text.general_exception 0x9d005b38           0xdc         220   
.text.A1_action         0x9d005c14           0xd8         216   
.rodata                 0x9d005cf0           0xc8         200  Read-only const 
.text.CANbus_read       0x9d005db8           0xc4         196   
.text.__kernel_sin      0x9d005e7c           0xb8         184   
.text.CLK_Initialize    0x9d005f34           0xb4         180   
.text.SYS_Initialize    0x9d005fe8           0xb4         180   
.text.fill_diag_data    0x9d00609c           0xb0         176   
.text.tune_command      0x9d00614c           0xa8         168   
.text.RED_LED_blink     0x9d0061f4           0xa0         160   
.text.fast_fault_check  0x9d006294           0x9c         156   
.text.EEPROM_WordRead   0x9d006330           0x90         144   
.text.PWM_override_OFF  0x9d0063c0           0x84         132   
.text                   0x9d006444           0x84         132  App's exec code 
.text.EEPROM_WordWrite  0x9d0064c8           0x7c         124   
.text.SPI4_Initialize   0x9d006544           0x7c         124   
.text.ADC_calib         0x9d0065c0           0x78         120   
.text.fill_data_for_VCU 0x9d006638           0x6c         108   
.rodata                 0x9d0066a8           0x68         104  Read-only const 
.text.EEPROM_WriteExecu 0x9d006710           0x64         100   
.text.slow_fault_check  0x9d006774           0x64         100   
.text.PWM_PRI_Interrupt 0x9d0067d8           0x5c          92   
.text.system_state_indi 0x9d006834           0x5c          92   
.text.DEVSN_send        0x9d006890           0x5c          92   
.text.measurement_const 0x9d0068ec           0x58          88   
.text.PWM_init          0x9d006944           0x58          88   
.text.duty_cal_update   0x9d00699c           0x54          84   
.text.main              0x9d0069f0           0x54          84   
.text.main_entry        0x9d006a44           0x54          84   
.rodata                 0x9d006a98           0x50          80  Read-only const 
.text.EVIC_Initialize   0x9d006ae8           0x48          72   
.rodata                 0x9d006b30           0x48          72  Read-only const 
.text                   0x9d006b78           0x44          68  App's exec code 
.text.send_byte_uart    0x9d006bbc           0x40          64   
.text.CDAC1_Initialize  0x9d006bfc           0x38          56   
.text.CDAC2_Initialize  0x9d006c34           0x38          56   
.text.CDAC3_Initialize  0x9d006c6c           0x38          56   
.text.UART1_Initialize  0x9d006ca4           0x38          56   
.rodata                 0x9d006ce0           0x38          56  Read-only const 
.text.send_diag_data    0x9d006d18           0x34          52   
.text                   0x9d006d4c           0x34          52  App's exec code 
.text.GPIO_immob_DIS    0x9d006d80           0x30          48   
.text.CANbus_write      0x9d006db0           0x30          48   
.text._general_exceptio 0x9d006de0           0x24          36   
.text._bootstrap_except 0x9d006e04           0x24          36   
.text.send_measured_ang 0x9d006e28           0x24          36   
.text.device_state_send 0x9d006e4c           0x20          32   
.text.CAN_immob_DIS     0x9d006e6c           0x20          32   
.rodata                 0x9d006e90           0x20          32  Read-only const 
.text.MCPWM_Start       0x9d006eb0           0x1c          28   
.text.A3_action         0x9d006ecc           0x1c          28   
.text.fault             0x9d006ee8           0x1c          28   
.text._sqrtx            0x9d006f04           0x1c          28   
.text                   0x9d006f20           0x18          24  App's exec code 
.text._fabsx            0x9d006f38           0x18          24   
.rodata                 0x9d006f50           0x14          20  Read-only const 
.text.torque_control    0x9d006f64           0x14          20   
.rodata                 0x9d006f78           0x10          16  Read-only const 
.text.EEPROM_IsBusy     0x9d006f88           0x10          16   
.rodata                 0x9d006f98            0xc          12  Read-only const 
.text.send_data_uart    0x9d006fa4            0xc          12   
.text._on_bootstrap     0x9d006fb0            0x8           8   
      Total kseg0_program_mem used  :      0x6fa8       28584  2.7% of 0x100000

kseg0 Boot-Memory Usage
section                    address  length [bytes]      (dec)  Description
-------                 ----------  -------------------------  -----------
         Total kseg0_boot_mem used  :           0           0  

kseg1 Boot-Memory Usage
section                    address  length [bytes]      (dec)  Description
-------                 ----------  -------------------------  -----------
.reset                  0xbfc00000          0x1a4         420  Reset handler 
.bev_excpt              0xbfc00380           0x10          16  BEV-Exception 
         Total kseg1_boot_mem used  :       0x1b4         436  37.8% of 0x480
        --------------------------------------------------------------------------
         Total Program Memory used  :      0x715c       29020  2.8% of 0x100480
        --------------------------------------------------------------------------


kseg0 Data-Memory Usage
section                    address  length [bytes]      (dec)  Description
-------                 ----------  -------------------------  -----------
.sdata                  0x80000000          0x188         392  Small init data 
.sbss                   0x80000188          0x218         536  Small uninit data 
.bss                    0x800004a0           0x28          40  Uninitialized data 
.data                   0x800004c8           0x1c          28  Initialized data 
.bss                    0x800004e4           0x14          20  Uninitialized data 
.data                   0x800004f8            0xc          12  Initialized data 
.bss.errno              0x80000504            0x4           4   
         Total kseg0_data_mem used  :       0x408        1032  0.4% of 0x40000
        --------------------------------------------------------------------------
            Total Data Memory used  :       0x408        1032  0.4% of 0x40000
        --------------------------------------------------------------------------


Dynamic Data-Memory Reservation
section                    address  length [bytes]      (dec)  Description
-------                 ----------  -------------------------  -----------
heap                    0x80000510          0x200         512  Reserved for heap 
stack                   0x80000728        0x3f8d0      260304  Reserved for stack 

        --------------------------------------------------------------------------

Discarded input sections

 .text          0x00000000        0x0 /opt/microchip/xc32/v2.50/bin/bin/../../lib/gcc/pic32mx/4.8.3/../../../../pic32mx/lib/fpu64/debug-exception-return.o
 .data          0x00000000        0x0 /opt/microchip/xc32/v2.50/bin/bin/../../lib/gcc/pic32mx/4.8.3/../../../../pic32mx/lib/fpu64/debug-exception-return.o
 .bss           0x00000000        0x0 /opt/microchip/xc32/v2.50/bin/bin/../../lib/gcc/pic32mx/4.8.3/../../../../pic32mx/lib/fpu64/debug-exception-return.o
 .text          0x00000000        0x0 build/V3_MCF1024/production/_ext/1972949787/plib_adchs.o
 .data          0x00000000        0x0 build/V3_MCF1024/production/_ext/1972949787/plib_adchs.o
 .bss           0x00000000        0x0 build/V3_MCF1024/production/_ext/1972949787/plib_adchs.o
 .reginfo       0x00000000       0x18 build/V3_MCF1024/production/_ext/1972949787/plib_adchs.o
 .text.ADCHS_ModulesEnable
                0x00000000       0x1c build/V3_MCF1024/production/_ext/1972949787/plib_adchs.o
 .text.ADCHS_ModulesDisable
                0x00000000       0x20 build/V3_MCF1024/production/_ext/1972949787/plib_adchs.o
 .text.ADCHS_ChannelResultInterruptEnable
                0x00000000       0x48 build/V3_MCF1024/production/_ext/1972949787/plib_adchs.o
 .text.ADCHS_ChannelResultInterruptDisable
                0x00000000       0x50 build/V3_MCF1024/production/_ext/1972949787/plib_adchs.o
 .text.ADCHS_ChannelEarlyInterruptEnable
                0x00000000       0x48 build/V3_MCF1024/production/_ext/1972949787/plib_adchs.o
 .text.ADCHS_ChannelEarlyInterruptDisable
                0x00000000       0x50 build/V3_MCF1024/production/_ext/1972949787/plib_adchs.o
 .text.ADCHS_GlobalEdgeConversionStart
                0x00000000       0x1c build/V3_MCF1024/production/_ext/1972949787/plib_adchs.o
 .text.ADCHS_GlobalLevelConversionStart
                0x00000000       0x1c build/V3_MCF1024/production/_ext/1972949787/plib_adchs.o
 .text.ADCHS_GlobalLevelConversionStop
                0x00000000       0x18 build/V3_MCF1024/production/_ext/1972949787/plib_adchs.o
 .text.ADCHS_ChannelConversionStart
                0x00000000       0x28 build/V3_MCF1024/production/_ext/1972949787/plib_adchs.o
 .text.ADCHS_ChannelResultIsReady
                0x00000000       0x30 build/V3_MCF1024/production/_ext/1972949787/plib_adchs.o
 .text.ADCHS_ChannelResultGet
                0x00000000       0x18 build/V3_MCF1024/production/_ext/1972949787/plib_adchs.o
 .text.ADCHS_EOSStatusGet
                0x00000000       0x10 build/V3_MCF1024/production/_ext/1972949787/plib_adchs.o
 .text          0x00000000        0x0 build/V3_MCF1024/production/_ext/1971181624/plib_canfd1.o
 .data          0x00000000        0x0 build/V3_MCF1024/production/_ext/1971181624/plib_canfd1.o
 .bss           0x00000000        0x0 build/V3_MCF1024/production/_ext/1971181624/plib_canfd1.o
 .reginfo       0x00000000       0x18 build/V3_MCF1024/production/_ext/1971181624/plib_canfd1.o
 .text.CAN1_MessageAbort
                0x00000000       0x40 build/V3_MCF1024/production/_ext/1971181624/plib_canfd1.o
 .text.CAN1_MessageAcceptanceFilterSet
                0x00000000       0xac build/V3_MCF1024/production/_ext/1971181624/plib_canfd1.o
 .text.CAN1_MessageAcceptanceFilterGet
                0x00000000       0x64 build/V3_MCF1024/production/_ext/1971181624/plib_canfd1.o
 .text.CAN1_MessageAcceptanceFilterMaskSet
                0x00000000       0xb4 build/V3_MCF1024/production/_ext/1971181624/plib_canfd1.o
 .text.CAN1_MessageAcceptanceFilterMaskGet
                0x00000000       0x54 build/V3_MCF1024/production/_ext/1971181624/plib_canfd1.o
 .text.CAN1_ErrorGet
                0x00000000       0x14 build/V3_MCF1024/production/_ext/1971181624/plib_canfd1.o
 .text.CAN1_ErrorCountGet
                0x00000000       0x1c build/V3_MCF1024/production/_ext/1971181624/plib_canfd1.o
 .text.CAN1_InterruptGet
                0x00000000       0x34 build/V3_MCF1024/production/_ext/1971181624/plib_canfd1.o
 .text.CAN1_TxFIFOQueueIsFull
                0x00000000       0x40 build/V3_MCF1024/production/_ext/1971181624/plib_canfd1.o
 .text.CAN1_AutoRTRResponseSet
                0x00000000       0xe4 build/V3_MCF1024/production/_ext/1971181624/plib_canfd1.o
 .text          0x00000000        0x0 build/V3_MCF1024/production/_ext/894868023/plib_cdac1.o
 .data          0x00000000        0x0 build/V3_MCF1024/production/_ext/894868023/plib_cdac1.o
 .bss           0x00000000        0x0 build/V3_MCF1024/production/_ext/894868023/plib_cdac1.o
 .reginfo       0x00000000       0x18 build/V3_MCF1024/production/_ext/894868023/plib_cdac1.o
 .text.CDAC1_DataWrite
                0x00000000       0x10 build/V3_MCF1024/production/_ext/894868023/plib_cdac1.o
 .text          0x00000000        0x0 build/V3_MCF1024/production/_ext/894868023/plib_cdac2.o
 .data          0x00000000        0x0 build/V3_MCF1024/production/_ext/894868023/plib_cdac2.o
 .bss           0x00000000        0x0 build/V3_MCF1024/production/_ext/894868023/plib_cdac2.o
 .reginfo       0x00000000       0x18 build/V3_MCF1024/production/_ext/894868023/plib_cdac2.o
 .text.CDAC2_DataWrite
                0x00000000       0x10 build/V3_MCF1024/production/_ext/894868023/plib_cdac2.o
 .text          0x00000000        0x0 build/V3_MCF1024/production/_ext/894868023/plib_cdac3.o
 .data          0x00000000        0x0 build/V3_MCF1024/production/_ext/894868023/plib_cdac3.o
 .bss           0x00000000        0x0 build/V3_MCF1024/production/_ext/894868023/plib_cdac3.o
 .reginfo       0x00000000       0x18 build/V3_MCF1024/production/_ext/894868023/plib_cdac3.o
 .text.CDAC3_DataWrite
                0x00000000       0x10 build/V3_MCF1024/production/_ext/894868023/plib_cdac3.o
 .text          0x00000000        0x0 build/V3_MCF1024/production/_ext/444508452/plib_clk.o
 .data          0x00000000        0x0 build/V3_MCF1024/production/_ext/444508452/plib_clk.o
 .bss           0x00000000        0x0 build/V3_MCF1024/production/_ext/444508452/plib_clk.o
 .reginfo       0x00000000       0x18 build/V3_MCF1024/production/_ext/444508452/plib_clk.o
 .text          0x00000000        0x0 build/V3_MCF1024/production/_ext/916064250/plib_eeprom.o
 .data          0x00000000        0x0 build/V3_MCF1024/production/_ext/916064250/plib_eeprom.o
 .bss           0x00000000        0x0 build/V3_MCF1024/production/_ext/916064250/plib_eeprom.o
 .reginfo       0x00000000       0x18 build/V3_MCF1024/production/_ext/916064250/plib_eeprom.o
 .text.EEPROM_ErrorGet
                0x00000000       0x10 build/V3_MCF1024/production/_ext/916064250/plib_eeprom.o
 .text.EEPROM_PageErase
                0x00000000       0x64 build/V3_MCF1024/production/_ext/916064250/plib_eeprom.o
 .text.EEPROM_BulkErase
                0x00000000       0x54 build/V3_MCF1024/production/_ext/916064250/plib_eeprom.o
 .text          0x00000000        0x0 build/V3_MCF1024/production/_ext/894790895/plib_evic.o
 .data          0x00000000        0x0 build/V3_MCF1024/production/_ext/894790895/plib_evic.o
 .bss           0x00000000        0x0 build/V3_MCF1024/production/_ext/894790895/plib_evic.o
 .reginfo       0x00000000       0x18 build/V3_MCF1024/production/_ext/894790895/plib_evic.o
 .text.EVIC_SourceEnable
                0x00000000       0x28 build/V3_MCF1024/production/_ext/894790895/plib_evic.o
 .text.EVIC_SourceDisable
                0x00000000       0x28 build/V3_MCF1024/production/_ext/894790895/plib_evic.o
 .text.EVIC_SourceIsEnabled
                0x00000000       0x20 build/V3_MCF1024/production/_ext/894790895/plib_evic.o
 .text.EVIC_SourceStatusGet
                0x00000000       0x20 build/V3_MCF1024/production/_ext/894790895/plib_evic.o
 .text.EVIC_SourceStatusSet
                0x00000000       0x28 build/V3_MCF1024/production/_ext/894790895/plib_evic.o
 .text.EVIC_SourceStatusClear
                0x00000000       0x28 build/V3_MCF1024/production/_ext/894790895/plib_evic.o
 .text.EVIC_INT_Enable
                0x00000000       0x18 build/V3_MCF1024/production/_ext/894790895/plib_evic.o
 .text.EVIC_INT_Disable
                0x00000000       0x20 build/V3_MCF1024/production/_ext/894790895/plib_evic.o
 .text.EVIC_INT_Restore
                0x00000000       0x24 build/V3_MCF1024/production/_ext/894790895/plib_evic.o
 .text          0x00000000        0x0 build/V3_MCF1024/production/_ext/894737067/plib_gpio.o
 .data          0x00000000        0x0 build/V3_MCF1024/production/_ext/894737067/plib_gpio.o
 .bss           0x00000000        0x0 build/V3_MCF1024/production/_ext/894737067/plib_gpio.o
 .reginfo       0x00000000       0x18 build/V3_MCF1024/production/_ext/894737067/plib_gpio.o
 .text.GPIO_PortRead
                0x00000000       0x18 build/V3_MCF1024/production/_ext/894737067/plib_gpio.o
 .text.GPIO_PortWrite
                0x00000000       0x30 build/V3_MCF1024/production/_ext/894737067/plib_gpio.o
 .text.GPIO_PortLatchRead
                0x00000000       0x18 build/V3_MCF1024/production/_ext/894737067/plib_gpio.o
 .text.GPIO_PortSet
                0x00000000       0x1c build/V3_MCF1024/production/_ext/894737067/plib_gpio.o
 .text.GPIO_PortClear
                0x00000000       0x1c build/V3_MCF1024/production/_ext/894737067/plib_gpio.o
 .text.GPIO_PortToggle
                0x00000000       0x1c build/V3_MCF1024/production/_ext/894737067/plib_gpio.o
 .text.GPIO_PortInputEnable
                0x00000000       0x1c build/V3_MCF1024/production/_ext/894737067/plib_gpio.o
 .text.GPIO_PortOutputEnable
                0x00000000       0x1c build/V3_MCF1024/production/_ext/894737067/plib_gpio.o
 .text          0x00000000        0x0 build/V3_MCF1024/production/_ext/1961884374/plib_mcpwm.o
 .data          0x00000000        0x0 build/V3_MCF1024/production/_ext/1961884374/plib_mcpwm.o
 .bss           0x00000000        0x0 build/V3_MCF1024/production/_ext/1961884374/plib_mcpwm.o
 .reginfo       0x00000000       0x18 build/V3_MCF1024/production/_ext/1961884374/plib_mcpwm.o
 .text.MCPWM_Stop
                0x00000000       0x18 build/V3_MCF1024/production/_ext/1961884374/plib_mcpwm.o
 .text.MCPWM_PrimaryPeriodSet
                0x00000000       0x10 build/V3_MCF1024/production/_ext/1961884374/plib_mcpwm.o
 .text.MCPWM_PrimaryPeriodGet
                0x00000000       0x10 build/V3_MCF1024/production/_ext/1961884374/plib_mcpwm.o
 .text.MCPWM_SecondaryPeriodSet
                0x00000000       0x10 build/V3_MCF1024/production/_ext/1961884374/plib_mcpwm.o
 .text.MCPWM_SecondaryPeriodGet
                0x00000000       0x10 build/V3_MCF1024/production/_ext/1961884374/plib_mcpwm.o
 .text.MCPWM_ChannelPrimaryDutySet
                0x00000000       0x1c build/V3_MCF1024/production/_ext/1961884374/plib_mcpwm.o
 .text.MCPWM_ChannelSecondaryDutySet
                0x00000000       0x1c build/V3_MCF1024/production/_ext/1961884374/plib_mcpwm.o
 .text.MCPWM_ChannelDeadTimeSet
                0x00000000       0x34 build/V3_MCF1024/production/_ext/1961884374/plib_mcpwm.o
 .text.MCPWM_ChannelPrimaryTriggerSet
                0x00000000       0x1c build/V3_MCF1024/production/_ext/1961884374/plib_mcpwm.o
 .text.MCPWM_ChannelSecondaryTriggerSet
                0x00000000       0x1c build/V3_MCF1024/production/_ext/1961884374/plib_mcpwm.o
 .text.MCPWM_ChannelLeadingEdgeBlankingDelaySet
                0x00000000       0x1c build/V3_MCF1024/production/_ext/1961884374/plib_mcpwm.o
 .text.MCPWM_ChannelPinsOverrideEnable
                0x00000000       0x24 build/V3_MCF1024/production/_ext/1961884374/plib_mcpwm.o
 .text.MCPWM_ChannelPinsOverrideDisable
                0x00000000       0x24 build/V3_MCF1024/production/_ext/1961884374/plib_mcpwm.o
 .text.MCPWM_ChannelPinsOwnershipEnable
                0x00000000       0x24 build/V3_MCF1024/production/_ext/1961884374/plib_mcpwm.o
 .text.MCPWM_ChannelPinsOwnershipDisable
                0x00000000       0x24 build/V3_MCF1024/production/_ext/1961884374/plib_mcpwm.o
 .text.MCPWM_PrimaryEventCallbackRegister
                0x00000000        0xc build/V3_MCF1024/production/_ext/1961884374/plib_mcpwm.o
 .text          0x00000000        0x0 build/V3_MCF1024/production/_ext/1340093086/plib_spi4_master.o
 .data          0x00000000        0x0 build/V3_MCF1024/production/_ext/1340093086/plib_spi4_master.o
 .bss           0x00000000        0x0 build/V3_MCF1024/production/_ext/1340093086/plib_spi4_master.o
 .reginfo       0x00000000       0x18 build/V3_MCF1024/production/_ext/1340093086/plib_spi4_master.o
 .text.SPI4_TransferSetup
                0x00000000       0xb8 build/V3_MCF1024/production/_ext/1340093086/plib_spi4_master.o
 .text.SPI4_IsTransmitterBusy
                0x00000000       0x14 build/V3_MCF1024/production/_ext/1340093086/plib_spi4_master.o
 .text.SPI4_WriteRead
                0x00000000      0x274 build/V3_MCF1024/production/_ext/1340093086/plib_spi4_master.o
 .text.SPI4_Write
                0x00000000       0x20 build/V3_MCF1024/production/_ext/1340093086/plib_spi4_master.o
 .text.SPI4_Read
                0x00000000       0x28 build/V3_MCF1024/production/_ext/1340093086/plib_spi4_master.o
 .text          0x00000000        0x0 build/V3_MCF1024/production/_ext/894334124/plib_uart1.o
 .data          0x00000000        0x0 build/V3_MCF1024/production/_ext/894334124/plib_uart1.o
 .bss           0x00000000        0x0 build/V3_MCF1024/production/_ext/894334124/plib_uart1.o
 .reginfo       0x00000000       0x18 build/V3_MCF1024/production/_ext/894334124/plib_uart1.o
 .text.UART1_ErrorClear
                0x00000000       0x64 build/V3_MCF1024/production/_ext/894334124/plib_uart1.o
 .text.UART1_SerialSetup
                0x00000000       0xe8 build/V3_MCF1024/production/_ext/894334124/plib_uart1.o
 .text.UART1_Read
                0x00000000       0xbc build/V3_MCF1024/production/_ext/894334124/plib_uart1.o
 .text.UART1_Write
                0x00000000       0x84 build/V3_MCF1024/production/_ext/894334124/plib_uart1.o
 .text.UART1_ErrorGet
                0x00000000       0x3c build/V3_MCF1024/production/_ext/894334124/plib_uart1.o
 .text.UART1_AutoBaudQuery
                0x00000000       0x10 build/V3_MCF1024/production/_ext/894334124/plib_uart1.o
 .text.UART1_AutoBaudSet
                0x00000000       0x18 build/V3_MCF1024/production/_ext/894334124/plib_uart1.o
 .text.UART1_WriteByte
                0x00000000       0x20 build/V3_MCF1024/production/_ext/894334124/plib_uart1.o
 .text.UART1_TransmitterIsReady
                0x00000000       0x14 build/V3_MCF1024/production/_ext/894334124/plib_uart1.o
 .text.UART1_ReadByte
                0x00000000       0x10 build/V3_MCF1024/production/_ext/894334124/plib_uart1.o
 .text.UART1_ReceiverIsReady
                0x00000000       0x10 build/V3_MCF1024/production/_ext/894334124/plib_uart1.o
 .text.UART1_TransmitComplete
                0x00000000       0x10 build/V3_MCF1024/production/_ext/894334124/plib_uart1.o
 .text          0x00000000        0x0 build/V3_MCF1024/production/_ext/1780272356/xc32_monitor.o
 .data          0x00000000        0x0 build/V3_MCF1024/production/_ext/1780272356/xc32_monitor.o
 .bss           0x00000000        0x0 build/V3_MCF1024/production/_ext/1780272356/xc32_monitor.o
 .reginfo       0x00000000       0x18 build/V3_MCF1024/production/_ext/1780272356/xc32_monitor.o
 .text.read     0x00000000        0x8 build/V3_MCF1024/production/_ext/1780272356/xc32_monitor.o
 .text.write    0x00000000        0x8 build/V3_MCF1024/production/_ext/1780272356/xc32_monitor.o
 .text          0x00000000        0x0 build/V3_MCF1024/production/_ext/559960290/initialization.o
 .data          0x00000000        0x0 build/V3_MCF1024/production/_ext/559960290/initialization.o
 .bss           0x00000000        0x0 build/V3_MCF1024/production/_ext/559960290/initialization.o
 .reginfo       0x00000000       0x18 build/V3_MCF1024/production/_ext/559960290/initialization.o
 .text          0x00000000        0x0 build/V3_MCF1024/production/_ext/559960290/interrupts.o
 .data          0x00000000        0x0 build/V3_MCF1024/production/_ext/559960290/interrupts.o
 .bss           0x00000000        0x0 build/V3_MCF1024/production/_ext/559960290/interrupts.o
 .reginfo       0x00000000       0x18 build/V3_MCF1024/production/_ext/559960290/interrupts.o
 .text          0x00000000        0x0 build/V3_MCF1024/production/_ext/559960290/exceptions.o
 .data          0x00000000        0x0 build/V3_MCF1024/production/_ext/559960290/exceptions.o
 .bss           0x00000000        0x0 build/V3_MCF1024/production/_ext/559960290/exceptions.o
 .reginfo       0x00000000       0x18 build/V3_MCF1024/production/_ext/559960290/exceptions.o
 .text          0x00000000        0x0 build/V3_MCF1024/production/_ext/1639450193/driver_ADC.o
 .data          0x00000000        0x0 build/V3_MCF1024/production/_ext/1639450193/driver_ADC.o
 .bss           0x00000000        0x0 build/V3_MCF1024/production/_ext/1639450193/driver_ADC.o
 .reginfo       0x00000000       0x18 build/V3_MCF1024/production/_ext/1639450193/driver_ADC.o
 .text          0x00000000        0x0 build/V3_MCF1024/production/_ext/1639450193/driver_GPIO.o
 .data          0x00000000        0x0 build/V3_MCF1024/production/_ext/1639450193/driver_GPIO.o
 .bss           0x00000000        0x0 build/V3_MCF1024/production/_ext/1639450193/driver_GPIO.o
 .reginfo       0x00000000       0x18 build/V3_MCF1024/production/_ext/1639450193/driver_GPIO.o
 .text.GPIO_init
                0x00000000        0x8 build/V3_MCF1024/production/_ext/1639450193/driver_GPIO.o
 .text.GPIO_reverse
                0x00000000       0x70 build/V3_MCF1024/production/_ext/1639450193/driver_GPIO.o
 .text.GPIO_immob_EN
                0x00000000       0x54 build/V3_MCF1024/production/_ext/1639450193/driver_GPIO.o
 .text.turn_on_RED_LED
                0x00000000       0x1c build/V3_MCF1024/production/_ext/1639450193/driver_GPIO.o
 .text.turn_off_RED_LED
                0x00000000       0x18 build/V3_MCF1024/production/_ext/1639450193/driver_GPIO.o
 .text          0x00000000        0x0 build/V3_MCF1024/production/_ext/1639450193/driver_PWM.o
 .data          0x00000000        0x0 build/V3_MCF1024/production/_ext/1639450193/driver_PWM.o
 .bss           0x00000000        0x0 build/V3_MCF1024/production/_ext/1639450193/driver_PWM.o
 .reginfo       0x00000000       0x18 build/V3_MCF1024/production/_ext/1639450193/driver_PWM.o
 .text.PWM_bootstrap
                0x00000000       0x84 build/V3_MCF1024/production/_ext/1639450193/driver_PWM.o
 .text.PWMpins_enable
                0x00000000       0x5c build/V3_MCF1024/production/_ext/1639450193/driver_PWM.o
 .text.driver_PWM_variables_update
                0x00000000       0x24 build/V3_MCF1024/production/_ext/1639450193/driver_PWM.o
 .text          0x00000000        0x0 build/V3_MCF1024/production/_ext/1639450193/driver_SPI.o
 .data          0x00000000        0x0 build/V3_MCF1024/production/_ext/1639450193/driver_SPI.o
 .bss           0x00000000        0x0 build/V3_MCF1024/production/_ext/1639450193/driver_SPI.o
 .reginfo       0x00000000       0x18 build/V3_MCF1024/production/_ext/1639450193/driver_SPI.o
 .text.slow_measurement_MT
                0x00000000      0x140 build/V3_MCF1024/production/_ext/1639450193/driver_SPI.o
 .rodata        0x00000000       0x10 build/V3_MCF1024/production/_ext/1639450193/driver_SPI.o
 .text          0x00000000        0x0 build/V3_MCF1024/production/_ext/1639450193/driver_UART.o
 .data          0x00000000        0x0 build/V3_MCF1024/production/_ext/1639450193/driver_UART.o
 .reginfo       0x00000000       0x18 build/V3_MCF1024/production/_ext/1639450193/driver_UART.o
 .text          0x00000000        0x0 build/V3_MCF1024/production/_ext/1639450193/driver_CANbus.o
 .data          0x00000000        0x0 build/V3_MCF1024/production/_ext/1639450193/driver_CANbus.o
 .bss           0x00000000        0x0 build/V3_MCF1024/production/_ext/1639450193/driver_CANbus.o
 .reginfo       0x00000000       0x18 build/V3_MCF1024/production/_ext/1639450193/driver_CANbus.o
 .text.CANbus_init
                0x00000000       0x18 build/V3_MCF1024/production/_ext/1639450193/driver_CANbus.o
 .text          0x00000000        0x0 build/V3_MCF1024/production/_ext/1375476428/diagnostics.o
 .bss           0x00000000        0x0 build/V3_MCF1024/production/_ext/1375476428/diagnostics.o
 .reginfo       0x00000000       0x18 build/V3_MCF1024/production/_ext/1375476428/diagnostics.o
 .text          0x00000000        0x0 build/V3_MCF1024/production/_ext/1375476428/fastmath.o
 .data          0x00000000        0x0 build/V3_MCF1024/production/_ext/1375476428/fastmath.o
 .bss           0x00000000        0x0 build/V3_MCF1024/production/_ext/1375476428/fastmath.o
 .reginfo       0x00000000       0x18 build/V3_MCF1024/production/_ext/1375476428/fastmath.o
 .text          0x00000000        0x0 build/V3_MCF1024/production/_ext/1375476428/tuning.o
 .data          0x00000000        0x0 build/V3_MCF1024/production/_ext/1375476428/tuning.o
 .reginfo       0x00000000       0x18 build/V3_MCF1024/production/_ext/1375476428/tuning.o
 .text          0x00000000        0x0 build/V3_MCF1024/production/_ext/1375476428/device_stat.o
 .bss           0x00000000        0x0 build/V3_MCF1024/production/_ext/1375476428/device_stat.o
 .reginfo       0x00000000       0x18 build/V3_MCF1024/production/_ext/1375476428/device_stat.o
 .text          0x00000000        0x0 build/V3_MCF1024/production/_ext/1375476428/VCU_CANdata.o
 .data          0x00000000        0x0 build/V3_MCF1024/production/_ext/1375476428/VCU_CANdata.o
 .bss           0x00000000        0x0 build/V3_MCF1024/production/_ext/1375476428/VCU_CANdata.o
 .reginfo       0x00000000       0x18 build/V3_MCF1024/production/_ext/1375476428/VCU_CANdata.o
 .text.CAN_init
                0x00000000        0x8 build/V3_MCF1024/production/_ext/1375476428/VCU_CANdata.o
 .text.CAN_reverse
                0x00000000       0x64 build/V3_MCF1024/production/_ext/1375476428/VCU_CANdata.o
 .text.CAN_immob_EN
                0x00000000       0x48 build/V3_MCF1024/production/_ext/1375476428/VCU_CANdata.o
 .text          0x00000000        0x0 build/V3_MCF1024/production/_ext/1200941409/application_software.o
 .data          0x00000000        0x0 build/V3_MCF1024/production/_ext/1200941409/application_software.o
 .bss           0x00000000        0x0 build/V3_MCF1024/production/_ext/1200941409/application_software.o
 .reginfo       0x00000000       0x18 build/V3_MCF1024/production/_ext/1200941409/application_software.o
 .text.drive_reset
                0x00000000       0x70 build/V3_MCF1024/production/_ext/1200941409/application_software.o
 .text.rpm_control
                0x00000000        0x8 build/V3_MCF1024/production/_ext/1200941409/application_software.o
 .text.vehicle_control
                0x00000000        0x8 build/V3_MCF1024/production/_ext/1200941409/application_software.o
 .text          0x00000000        0x0 build/V3_MCF1024/production/_ext/1200941409/fault.o
 .data          0x00000000        0x0 build/V3_MCF1024/production/_ext/1200941409/fault.o
 .bss           0x00000000        0x0 build/V3_MCF1024/production/_ext/1200941409/fault.o
 .reginfo       0x00000000       0x18 build/V3_MCF1024/production/_ext/1200941409/fault.o
 .text          0x00000000        0x0 build/V3_MCF1024/production/_ext/1200941409/state_engine.o
 .data          0x00000000        0x0 build/V3_MCF1024/production/_ext/1200941409/state_engine.o
 .bss           0x00000000        0x0 build/V3_MCF1024/production/_ext/1200941409/state_engine.o
 .reginfo       0x00000000       0x18 build/V3_MCF1024/production/_ext/1200941409/state_engine.o
 .text          0x00000000        0x0 build/V3_MCF1024/production/_ext/1360937237/main.o
 .data          0x00000000        0x0 build/V3_MCF1024/production/_ext/1360937237/main.o
 .bss           0x00000000        0x0 build/V3_MCF1024/production/_ext/1360937237/main.o
 .reginfo       0x00000000       0x18 build/V3_MCF1024/production/_ext/1360937237/main.o
 .text          0x00000000        0x0 /opt/microchip/xc32/v2.50/bin/bin/../../lib/gcc/pic32mx/4.8.3/../../../../pic32mx/lib/./proc/32MK1024MCM064/vector_offset_init.o
 .data          0x00000000        0x0 /opt/microchip/xc32/v2.50/bin/bin/../../lib/gcc/pic32mx/4.8.3/../../../../pic32mx/lib/./proc/32MK1024MCM064/vector_offset_init.o
 .bss           0x00000000        0x0 /opt/microchip/xc32/v2.50/bin/bin/../../lib/gcc/pic32mx/4.8.3/../../../../pic32mx/lib/./proc/32MK1024MCM064/vector_offset_init.o
 .reginfo       0x00000000       0x18 /opt/microchip/xc32/v2.50/bin/bin/../../lib/gcc/pic32mx/4.8.3/../../../../pic32mx/lib/./proc/32MK1024MCM064/vector_offset_init.o
 .text          0x00000000        0x0 /tmp/ccAtE9dX.o
 .data          0x00000000        0x0 /tmp/ccAtE9dX.o
 .bss           0x00000000        0x0 /tmp/ccAtE9dX.o
 .reginfo       0x00000000       0x18 /tmp/ccAtE9dX.o
 .text          0x00000000        0x0 /tmp/cclxkI3W.o
 .data          0x00000000        0x0 /tmp/cclxkI3W.o
 .bss           0x00000000        0x0 /tmp/cclxkI3W.o
 .reginfo       0x00000000       0x18 /tmp/cclxkI3W.o
 .text          0x00000000        0x0 /tmp/ccmO7AhX.o
 .data          0x00000000        0x0 /tmp/ccmO7AhX.o
 .bss           0x00000000        0x0 /tmp/ccmO7AhX.o
 .reginfo       0x00000000       0x18 /tmp/ccmO7AhX.o
 .discard       0x00000000        0x4 /tmp/ccmO7AhX.o
 .text          0x00000000        0x0 /opt/microchip/xc32/v2.50/bin/bin/../../lib/gcc/pic32mx/4.8.3/../../../../pic32mx/lib/./proc/32MK1024MCM064/default_isr_vectors.o
 .data          0x00000000        0x0 /opt/microchip/xc32/v2.50/bin/bin/../../lib/gcc/pic32mx/4.8.3/../../../../pic32mx/lib/./proc/32MK1024MCM064/default_isr_vectors.o
 .bss           0x00000000        0x0 /opt/microchip/xc32/v2.50/bin/bin/../../lib/gcc/pic32mx/4.8.3/../../../../pic32mx/lib/./proc/32MK1024MCM064/default_isr_vectors.o
 .reginfo       0x00000000       0x18 /opt/microchip/xc32/v2.50/bin/bin/../../lib/gcc/pic32mx/4.8.3/../../../../pic32mx/lib/./proc/32MK1024MCM064/default_isr_vectors.o
 .discard       0x00000000        0x4 /opt/microchip/xc32/v2.50/bin/bin/../../lib/gcc/pic32mx/4.8.3/../../../../pic32mx/lib/./proc/32MK1024MCM064/default_isr_vectors.o
 .data          0x00000000        0x0 /opt/microchip/xc32/v2.50/bin/bin/../../lib/gcc/pic32mx/4.8.3/../../../../pic32mx/lib/fpu64/pic32_software_reset.o
 .bss           0x00000000        0x0 /opt/microchip/xc32/v2.50/bin/bin/../../lib/gcc/pic32mx/4.8.3/../../../../pic32mx/lib/fpu64/pic32_software_reset.o
 .reginfo       0x00000000       0x18 /opt/microchip/xc32/v2.50/bin/bin/../../lib/gcc/pic32mx/4.8.3/../../../../pic32mx/lib/fpu64/pic32_software_reset.o
 .text          0x00000000        0x0 /opt/microchip/xc32/v2.50/bin/bin/../../lib/gcc/pic32mx/4.8.3/../../../../pic32mx/lib/fpu64/libpic32.a(default-on-reset.o)
 .data          0x00000000        0x0 /opt/microchip/xc32/v2.50/bin/bin/../../lib/gcc/pic32mx/4.8.3/../../../../pic32mx/lib/fpu64/libpic32.a(default-on-reset.o)
 .bss           0x00000000        0x0 /opt/microchip/xc32/v2.50/bin/bin/../../lib/gcc/pic32mx/4.8.3/../../../../pic32mx/lib/fpu64/libpic32.a(default-on-reset.o)
 .reginfo       0x00000000       0x18 /opt/microchip/xc32/v2.50/bin/bin/../../lib/gcc/pic32mx/4.8.3/../../../../pic32mx/lib/fpu64/libpic32.a(default-on-reset.o)
 .text          0x00000000        0x0 /opt/microchip/xc32/v2.50/bin/bin/../../lib/gcc/pic32mx/4.8.3/../../../../pic32mx/lib/fpu64/libpic32.a(default-on-bootstrap.o)
 .data          0x00000000        0x0 /opt/microchip/xc32/v2.50/bin/bin/../../lib/gcc/pic32mx/4.8.3/../../../../pic32mx/lib/fpu64/libpic32.a(default-on-bootstrap.o)
 .bss           0x00000000        0x0 /opt/microchip/xc32/v2.50/bin/bin/../../lib/gcc/pic32mx/4.8.3/../../../../pic32mx/lib/fpu64/libpic32.a(default-on-bootstrap.o)
 .reginfo       0x00000000       0x18 /opt/microchip/xc32/v2.50/bin/bin/../../lib/gcc/pic32mx/4.8.3/../../../../pic32mx/lib/fpu64/libpic32.a(default-on-bootstrap.o)
 .data          0x00000000        0x0 /opt/microchip/xc32/v2.50/bin/bin/../../lib/gcc/pic32mx/4.8.3/../../../../pic32mx/lib/fpu64/libpic32.a(default-nmi-handler.o)
 .bss           0x00000000        0x0 /opt/microchip/xc32/v2.50/bin/bin/../../lib/gcc/pic32mx/4.8.3/../../../../pic32mx/lib/fpu64/libpic32.a(default-nmi-handler.o)
 .reginfo       0x00000000       0x18 /opt/microchip/xc32/v2.50/bin/bin/../../lib/gcc/pic32mx/4.8.3/../../../../pic32mx/lib/fpu64/libpic32.a(default-nmi-handler.o)
 .data          0x00000000        0x0 /opt/microchip/xc32/v2.50/bin/bin/../../lib/gcc/pic32mx/4.8.3/../../../../pic32mx/lib/fpu64/libpic32.a(pic32_data_init.o)
 .bss           0x00000000        0x0 /opt/microchip/xc32/v2.50/bin/bin/../../lib/gcc/pic32mx/4.8.3/../../../../pic32mx/lib/fpu64/libpic32.a(pic32_data_init.o)
 .reginfo       0x00000000       0x18 /opt/microchip/xc32/v2.50/bin/bin/../../lib/gcc/pic32mx/4.8.3/../../../../pic32mx/lib/fpu64/libpic32.a(pic32_data_init.o)
 .text          0x00000000        0x0 /opt/microchip/xc32/v2.50/bin/bin/../../lib/gcc/pic32mx/4.8.3/../../../../pic32mx/lib/fpu64/libpic32.a(general-exception.o)
 .data          0x00000000        0x0 /opt/microchip/xc32/v2.50/bin/bin/../../lib/gcc/pic32mx/4.8.3/../../../../pic32mx/lib/fpu64/libpic32.a(general-exception.o)
 .bss           0x00000000        0x0 /opt/microchip/xc32/v2.50/bin/bin/../../lib/gcc/pic32mx/4.8.3/../../../../pic32mx/lib/fpu64/libpic32.a(general-exception.o)
 .reginfo       0x00000000       0x18 /opt/microchip/xc32/v2.50/bin/bin/../../lib/gcc/pic32mx/4.8.3/../../../../pic32mx/lib/fpu64/libpic32.a(general-exception.o)
 .text          0x00000000        0x0 /opt/microchip/xc32/v2.50/bin/bin/../../lib/gcc/pic32mx/4.8.3/../../../../pic32mx/lib/fpu64/libpic32.a(defaultinterrupt.o)
 .data          0x00000000        0x0 /opt/microchip/xc32/v2.50/bin/bin/../../lib/gcc/pic32mx/4.8.3/../../../../pic32mx/lib/fpu64/libpic32.a(defaultinterrupt.o)
 .bss           0x00000000        0x0 /opt/microchip/xc32/v2.50/bin/bin/../../lib/gcc/pic32mx/4.8.3/../../../../pic32mx/lib/fpu64/libpic32.a(defaultinterrupt.o)
 .reginfo       0x00000000       0x18 /opt/microchip/xc32/v2.50/bin/bin/../../lib/gcc/pic32mx/4.8.3/../../../../pic32mx/lib/fpu64/libpic32.a(defaultinterrupt.o)
 .text          0x00000000        0x0 /opt/microchip/xc32/v2.50/bin/bin/../../lib/gcc/pic32mx/4.8.3/../../../../pic32mx/lib/fpu64/libmfd.a(s_cos.o)
 .data          0x00000000        0x0 /opt/microchip/xc32/v2.50/bin/bin/../../lib/gcc/pic32mx/4.8.3/../../../../pic32mx/lib/fpu64/libmfd.a(s_cos.o)
 .bss           0x00000000        0x0 /opt/microchip/xc32/v2.50/bin/bin/../../lib/gcc/pic32mx/4.8.3/../../../../pic32mx/lib/fpu64/libmfd.a(s_cos.o)
 .reginfo       0x00000000       0x18 /opt/microchip/xc32/v2.50/bin/bin/../../lib/gcc/pic32mx/4.8.3/../../../../pic32mx/lib/fpu64/libmfd.a(s_cos.o)
 .text          0x00000000        0x0 /opt/microchip/xc32/v2.50/bin/bin/../../lib/gcc/pic32mx/4.8.3/../../../../pic32mx/lib/fpu64/libmfd.a(s_fabs.o)
 .data          0x00000000        0x0 /opt/microchip/xc32/v2.50/bin/bin/../../lib/gcc/pic32mx/4.8.3/../../../../pic32mx/lib/fpu64/libmfd.a(s_fabs.o)
 .bss           0x00000000        0x0 /opt/microchip/xc32/v2.50/bin/bin/../../lib/gcc/pic32mx/4.8.3/../../../../pic32mx/lib/fpu64/libmfd.a(s_fabs.o)
 .reginfo       0x00000000       0x18 /opt/microchip/xc32/v2.50/bin/bin/../../lib/gcc/pic32mx/4.8.3/../../../../pic32mx/lib/fpu64/libmfd.a(s_fabs.o)
 .text          0x00000000        0x0 /opt/microchip/xc32/v2.50/bin/bin/../../lib/gcc/pic32mx/4.8.3/../../../../pic32mx/lib/fpu64/libmfd.a(s_sin.o)
 .data          0x00000000        0x0 /opt/microchip/xc32/v2.50/bin/bin/../../lib/gcc/pic32mx/4.8.3/../../../../pic32mx/lib/fpu64/libmfd.a(s_sin.o)
 .bss           0x00000000        0x0 /opt/microchip/xc32/v2.50/bin/bin/../../lib/gcc/pic32mx/4.8.3/../../../../pic32mx/lib/fpu64/libmfd.a(s_sin.o)
 .reginfo       0x00000000       0x18 /opt/microchip/xc32/v2.50/bin/bin/../../lib/gcc/pic32mx/4.8.3/../../../../pic32mx/lib/fpu64/libmfd.a(s_sin.o)
 .text          0x00000000        0x0 /opt/microchip/xc32/v2.50/bin/bin/../../lib/gcc/pic32mx/4.8.3/../../../../pic32mx/lib/fpu64/libmfd.a(pic32_w_sqrt.o)
 .data          0x00000000        0x0 /opt/microchip/xc32/v2.50/bin/bin/../../lib/gcc/pic32mx/4.8.3/../../../../pic32mx/lib/fpu64/libmfd.a(pic32_w_sqrt.o)
 .bss           0x00000000        0x0 /opt/microchip/xc32/v2.50/bin/bin/../../lib/gcc/pic32mx/4.8.3/../../../../pic32mx/lib/fpu64/libmfd.a(pic32_w_sqrt.o)
 .reginfo       0x00000000       0x18 /opt/microchip/xc32/v2.50/bin/bin/../../lib/gcc/pic32mx/4.8.3/../../../../pic32mx/lib/fpu64/libmfd.a(pic32_w_sqrt.o)
 .data          0x00000000        0x0 /opt/microchip/xc32/v2.50/bin/bin/../../lib/gcc/pic32mx/4.8.3/../../../../pic32mx/lib/fpu64/libmfd.a(sqrtfd.o)
 .bss           0x00000000        0x0 /opt/microchip/xc32/v2.50/bin/bin/../../lib/gcc/pic32mx/4.8.3/../../../../pic32mx/lib/fpu64/libmfd.a(sqrtfd.o)
 .reginfo       0x00000000       0x18 /opt/microchip/xc32/v2.50/bin/bin/../../lib/gcc/pic32mx/4.8.3/../../../../pic32mx/lib/fpu64/libmfd.a(sqrtfd.o)
 .text          0x00000000        0x0 /opt/microchip/xc32/v2.50/bin/bin/../../lib/gcc/pic32mx/4.8.3/../../../../pic32mx/lib/fpu64/libmfd.a(e_rem_pio2.o)
 .data          0x00000000        0x0 /opt/microchip/xc32/v2.50/bin/bin/../../lib/gcc/pic32mx/4.8.3/../../../../pic32mx/lib/fpu64/libmfd.a(e_rem_pio2.o)
 .bss           0x00000000        0x0 /opt/microchip/xc32/v2.50/bin/bin/../../lib/gcc/pic32mx/4.8.3/../../../../pic32mx/lib/fpu64/libmfd.a(e_rem_pio2.o)
 .reginfo       0x00000000       0x18 /opt/microchip/xc32/v2.50/bin/bin/../../lib/gcc/pic32mx/4.8.3/../../../../pic32mx/lib/fpu64/libmfd.a(e_rem_pio2.o)
 .text          0x00000000        0x0 /opt/microchip/xc32/v2.50/bin/bin/../../lib/gcc/pic32mx/4.8.3/../../../../pic32mx/lib/fpu64/libmfd.a(k_cos.o)
 .data          0x00000000        0x0 /opt/microchip/xc32/v2.50/bin/bin/../../lib/gcc/pic32mx/4.8.3/../../../../pic32mx/lib/fpu64/libmfd.a(k_cos.o)
 .bss           0x00000000        0x0 /opt/microchip/xc32/v2.50/bin/bin/../../lib/gcc/pic32mx/4.8.3/../../../../pic32mx/lib/fpu64/libmfd.a(k_cos.o)
 .reginfo       0x00000000       0x18 /opt/microchip/xc32/v2.50/bin/bin/../../lib/gcc/pic32mx/4.8.3/../../../../pic32mx/lib/fpu64/libmfd.a(k_cos.o)
 .text          0x00000000        0x0 /opt/microchip/xc32/v2.50/bin/bin/../../lib/gcc/pic32mx/4.8.3/../../../../pic32mx/lib/fpu64/libmfd.a(k_sin.o)
 .data          0x00000000        0x0 /opt/microchip/xc32/v2.50/bin/bin/../../lib/gcc/pic32mx/4.8.3/../../../../pic32mx/lib/fpu64/libmfd.a(k_sin.o)
 .bss           0x00000000        0x0 /opt/microchip/xc32/v2.50/bin/bin/../../lib/gcc/pic32mx/4.8.3/../../../../pic32mx/lib/fpu64/libmfd.a(k_sin.o)
 .reginfo       0x00000000       0x18 /opt/microchip/xc32/v2.50/bin/bin/../../lib/gcc/pic32mx/4.8.3/../../../../pic32mx/lib/fpu64/libmfd.a(k_sin.o)
 .text          0x00000000        0x0 /opt/microchip/xc32/v2.50/bin/bin/../../lib/gcc/pic32mx/4.8.3/../../../../pic32mx/lib/fpu64/libpic32.a(errno.o)
 .data          0x00000000        0x0 /opt/microchip/xc32/v2.50/bin/bin/../../lib/gcc/pic32mx/4.8.3/../../../../pic32mx/lib/fpu64/libpic32.a(errno.o)
 .bss           0x00000000        0x0 /opt/microchip/xc32/v2.50/bin/bin/../../lib/gcc/pic32mx/4.8.3/../../../../pic32mx/lib/fpu64/libpic32.a(errno.o)
 .reginfo       0x00000000       0x18 /opt/microchip/xc32/v2.50/bin/bin/../../lib/gcc/pic32mx/4.8.3/../../../../pic32mx/lib/fpu64/libpic32.a(errno.o)

Memory Configuration

Name             Origin             Length             Attributes
kseg0_program_mem 0x9d000000         0x00100000         xr
kseg0_boot_mem   0x9fc20490         0x00000000
debug_exec_mem   0x9fc20490         0x00003aa0
kseg1_boot_mem   0xbfc00000         0x00000480
kseg1_boot_mem_4B0 0xbfc004b0         0x00003a80
config_BFC03F40  0xbfc03f40         0x00000004
config_BFC03F44  0xbfc03f44         0x00000004
config_BFC03F48  0xbfc03f48         0x00000004
config_BFC03F4C  0xbfc03f4c         0x00000004
config_BFC03F5C  0xbfc03f5c         0x00000004
config_BFC03F6C  0xbfc03f6c         0x00000004
config_BFC03F70  0xbfc03f70         0x00000004
config_BFC03FC0  0xbfc03fc0         0x00000004
config_BFC03FC4  0xbfc03fc4         0x00000004
config_BFC03FC8  0xbfc03fc8         0x00000004
config_BFC03FCC  0xbfc03fcc         0x00000004
config_BFC03FDC  0xbfc03fdc         0x00000004
config_BFC03FEC  0xbfc03fec         0x00000004
config_BFC03FF0  0xbfc03ff0         0x00000004
lowerbootaliaslastpage 0xbfc04000         0x00001000
upperbootalias   0xbfc20000         0x00003f30
config_BFC23F40  0xbfc23f40         0x00000004
config_BFC23F44  0xbfc23f44         0x00000004
config_BFC23F48  0xbfc23f48         0x00000004
config_BFC23F4C  0xbfc23f4c         0x00000004
config_BFC23F5C  0xbfc23f5c         0x00000004
config_BFC23F6C  0xbfc23f6c         0x00000004
config_BFC23F70  0xbfc23f70         0x00000004
config_BFC23FC0  0xbfc23fc0         0x00000004
config_BFC23FC4  0xbfc23fc4         0x00000004
config_BFC23FC8  0xbfc23fc8         0x00000004
config_BFC23FCC  0xbfc23fcc         0x00000004
config_BFC23FDC  0xbfc23fdc         0x00000004
config_BFC23FEC  0xbfc23fec         0x00000004
config_BFC23FF0  0xbfc23ff0         0x00000004
upperbootaliaslastpage 0xbfc24000         0x00001000
boot1            0xbfc40000         0x00003f30
config_BFC43F40  0xbfc43f40         0x00000004
config_BFC43F44  0xbfc43f44         0x00000004
config_BFC43F48  0xbfc43f48         0x00000004
config_BFC43F4C  0xbfc43f4c         0x00000004
config_BFC43F5C  0xbfc43f5c         0x00000004
config_BFC43F6C  0xbfc43f6c         0x00000004
config_BFC43F70  0xbfc43f70         0x00000004
config_BFC43FC0  0xbfc43fc0         0x00000004
config_BFC43FC4  0xbfc43fc4         0x00000004
config_BFC43FC8  0xbfc43fc8         0x00000004
config_BFC43FCC  0xbfc43fcc         0x00000004
config_BFC43FDC  0xbfc43fdc         0x00000004
config_BFC43FEC  0xbfc43fec         0x00000004
config_BFC43FF0  0xbfc43ff0         0x00000004
boot1lastpage    0xbfc44000         0x00001000
config_BFC45000  0xbfc45000         0x00000004
config_BFC45004  0xbfc45004         0x00000004
config_BFC45008  0xbfc45008         0x00000004
config_BFC4500C  0xbfc4500c         0x00000004
config_BFC45010  0xbfc45010         0x00000004
config_BFC45014  0xbfc45014         0x00000004
config_BFC45018  0xbfc45018         0x00000004
config_BFC45020  0xbfc45020         0x00000004
config_BFC45024  0xbfc45024         0x00000004
config_BFC45028  0xbfc45028         0x00000004
config_BFC4502C  0xbfc4502c         0x00000004
config_BFC45030  0xbfc45030         0x00000004
config_BFC45034  0xbfc45034         0x00000004
config_BFC45038  0xbfc45038         0x00000004
config_BFC4503C  0xbfc4503c         0x00000004
boot2            0xbfc60000         0x00003f30
config_BFC63F40  0xbfc63f40         0x00000004
config_BFC63F44  0xbfc63f44         0x00000004
config_BFC63F48  0xbfc63f48         0x00000004
config_BFC63F4C  0xbfc63f4c         0x00000004
config_BFC63F5C  0xbfc63f5c         0x00000004
config_BFC63F6C  0xbfc63f6c         0x00000004
config_BFC63F70  0xbfc63f70         0x00000004
config_BFC63FC0  0xbfc63fc0         0x00000004
config_BFC63FC4  0xbfc63fc4         0x00000004
config_BFC63FC8  0xbfc63fc8         0x00000004
config_BFC63FCC  0xbfc63fcc         0x00000004
config_BFC63FDC  0xbfc63fdc         0x00000004
config_BFC63FEC  0xbfc63fec         0x00000004
config_BFC63FF0  0xbfc63ff0         0x00000004
boot2lastpage    0xbfc64000         0x00001000
kseg0_data_mem   0x80000000         0x00040000         w !x
sfrs             0xbf800000         0x00100000
configsfrs_BFC03F30 0xbfc03f30         0x0000001c
configsfrs_BFC03FB0 0xbfc03fb0         0x0000001c
configsfrs_BFC23F30 0xbfc23f30         0x0000001c
configsfrs_BFC23FB0 0xbfc23fb0         0x0000001c
configsfrs_BFC43F30 0xbfc43f30         0x0000001c
configsfrs_BFC43FB0 0xbfc43fb0         0x0000001c
configsfrs_BFC45000 0xbfc45000         0x0000001c
configsfrs_BFC45020 0xbfc45020         0x00000010
configsfrs_BFC45030 0xbfc45030         0x00000010
configsfrs_BFC63F30 0xbfc63f30         0x0000001c
configsfrs_BFC63FB0 0xbfc63fb0         0x0000001c
*default*        0x00000000         0xffffffff

Linker script and memory map

LOAD /opt/microchip/xc32/v2.50/bin/bin/../../lib/gcc/pic32mx/4.8.3/../../../../pic32mx/lib/fpu64/debug-exception-return.o
LOAD build/V3_MCF1024/production/_ext/1972949787/plib_adchs.o
LOAD build/V3_MCF1024/production/_ext/1971181624/plib_canfd1.o
LOAD build/V3_MCF1024/production/_ext/894868023/plib_cdac1.o
LOAD build/V3_MCF1024/production/_ext/894868023/plib_cdac2.o
LOAD build/V3_MCF1024/production/_ext/894868023/plib_cdac3.o
LOAD build/V3_MCF1024/production/_ext/444508452/plib_clk.o
LOAD build/V3_MCF1024/production/_ext/916064250/plib_eeprom.o
LOAD build/V3_MCF1024/production/_ext/894790895/plib_evic.o
LOAD build/V3_MCF1024/production/_ext/894737067/plib_gpio.o
LOAD build/V3_MCF1024/production/_ext/1961884374/plib_mcpwm.o
LOAD build/V3_MCF1024/production/_ext/1340093086/plib_spi4_master.o
LOAD build/V3_MCF1024/production/_ext/894334124/plib_uart1.o
LOAD build/V3_MCF1024/production/_ext/1780272356/xc32_monitor.o
LOAD build/V3_MCF1024/production/_ext/559960290/initialization.o
LOAD build/V3_MCF1024/production/_ext/559960290/interrupts.o
LOAD build/V3_MCF1024/production/_ext/559960290/exceptions.o
LOAD build/V3_MCF1024/production/_ext/1639450193/driver_ADC.o
LOAD build/V3_MCF1024/production/_ext/1639450193/driver_GPIO.o
LOAD build/V3_MCF1024/production/_ext/1639450193/driver_PWM.o
LOAD build/V3_MCF1024/production/_ext/1639450193/driver_SPI.o
LOAD build/V3_MCF1024/production/_ext/1639450193/driver_UART.o
LOAD build/V3_MCF1024/production/_ext/1639450193/driver_CANbus.o
LOAD build/V3_MCF1024/production/_ext/1375476428/diagnostics.o
LOAD build/V3_MCF1024/production/_ext/1375476428/fastmath.o
LOAD build/V3_MCF1024/production/_ext/1375476428/tuning.o
LOAD build/V3_MCF1024/production/_ext/1375476428/device_stat.o
LOAD build/V3_MCF1024/production/_ext/1375476428/VCU_CANdata.o
LOAD build/V3_MCF1024/production/_ext/1200941409/application_software.o
LOAD build/V3_MCF1024/production/_ext/1200941409/fault.o
LOAD build/V3_MCF1024/production/_ext/1200941409/state_engine.o
LOAD build/V3_MCF1024/production/_ext/1360937237/main.o
                0x00000001                __MPLAB_BUILD = 0x1
                0x00000400                PROVIDE (_min_stack_size, 0x400)
START GROUP
LOAD /opt/microchip/xc32/v2.50/bin/bin/../../lib/gcc/pic32mx/4.8.3/../../../../pic32mx/lib/./proc/32MK1024MCM064/vector_offset_init.o
END GROUP
                0x00000001                PROVIDE (_vector_spacing, 0x1)
                0x9d000000                PROVIDE (_ebase_address, 0x9d000000)
                0xbfc00000                _RESET_ADDR = 0xbfc00000
                0xbfc00380                _BEV_EXCPT_ADDR = 0xbfc00380
                0xbfc00480                _DBG_EXCPT_ADDR = 0xbfc00480
                0x9d000000                _SIMPLE_TLB_REFILL_EXCPT_ADDR = (_ebase_address + 0x0)
                0x9d000180                _GEN_EXCPT_ADDR = (_ebase_address + 0x180)

.config_BFC03F40
 *(.config_BFC03F40)

.config_BFC03F44
 *(.config_BFC03F44)

.config_BFC03F48
 *(.config_BFC03F48)

.config_BFC03F4C
 *(.config_BFC03F4C)

.config_BFC03F5C
 *(.config_BFC03F5C)

.config_BFC03F6C
 *(.config_BFC03F6C)

.config_BFC03F70
 *(.config_BFC03F70)

.config_BFC03FC0
                0xbfc03fc0        0x4
 *(.config_BFC03FC0)
 .config_BFC03FC0
                0xbfc03fc0        0x4 build/V3_MCF1024/production/_ext/559960290/initialization.o

.config_BFC03FC4
                0xbfc03fc4        0x4
 *(.config_BFC03FC4)
 .config_BFC03FC4
                0xbfc03fc4        0x4 build/V3_MCF1024/production/_ext/559960290/initialization.o

.config_BFC03FC8
                0xbfc03fc8        0x4
 *(.config_BFC03FC8)
 .config_BFC03FC8
                0xbfc03fc8        0x4 build/V3_MCF1024/production/_ext/559960290/initialization.o

.config_BFC03FCC
                0xbfc03fcc        0x4
 *(.config_BFC03FCC)
 .config_BFC03FCC
                0xbfc03fcc        0x4 build/V3_MCF1024/production/_ext/559960290/initialization.o

.config_BFC03FDC
                0xbfc03fdc        0x4
 *(.config_BFC03FDC)
 .config_BFC03FDC
                0xbfc03fdc        0x4 build/V3_MCF1024/production/_ext/559960290/initialization.o

.config_BFC03FEC
 *(.config_BFC03FEC)

.config_BFC03FF0
                0xbfc03ff0        0x4
 *(.config_BFC03FF0)
 .config_BFC03FF0
                0xbfc03ff0        0x4 build/V3_MCF1024/production/_ext/559960290/initialization.o

.config_BFC23F40
 *(.config_BFC23F40)

.config_BFC23F44
 *(.config_BFC23F44)

.config_BFC23F48
 *(.config_BFC23F48)

.config_BFC23F4C
 *(.config_BFC23F4C)

.config_BFC23F5C
 *(.config_BFC23F5C)

.config_BFC23F6C
 *(.config_BFC23F6C)

.config_BFC23F70
 *(.config_BFC23F70)

.config_BFC23FC0
 *(.config_BFC23FC0)

.config_BFC23FC4
 *(.config_BFC23FC4)

.config_BFC23FC8
 *(.config_BFC23FC8)

.config_BFC23FCC
 *(.config_BFC23FCC)

.config_BFC23FDC
 *(.config_BFC23FDC)

.config_BFC23FEC
 *(.config_BFC23FEC)

.config_BFC23FF0
 *(.config_BFC23FF0)

.config_BFC43F40
 *(.config_BFC43F40)

.config_BFC43F44
 *(.config_BFC43F44)

.config_BFC43F48
 *(.config_BFC43F48)

.config_BFC43F4C
 *(.config_BFC43F4C)

.config_BFC43F5C
 *(.config_BFC43F5C)

.config_BFC43F6C
 *(.config_BFC43F6C)

.config_BFC43F70
 *(.config_BFC43F70)

.config_BFC43FC0
 *(.config_BFC43FC0)

.config_BFC43FC4
 *(.config_BFC43FC4)

.config_BFC43FC8
 *(.config_BFC43FC8)

.config_BFC43FCC
 *(.config_BFC43FCC)

.config_BFC43FDC
 *(.config_BFC43FDC)

.config_BFC43FEC
 *(.config_BFC43FEC)

.config_BFC43FF0
 *(.config_BFC43FF0)

.config_BFC45000
 *(.config_BFC45000)

.config_BFC45004
 *(.config_BFC45004)

.config_BFC45008
 *(.config_BFC45008)

.config_BFC4500C
 *(.config_BFC4500C)

.config_BFC45010
 *(.config_BFC45010)

.config_BFC45014
 *(.config_BFC45014)

.config_BFC45018
 *(.config_BFC45018)

.config_BFC45020
 *(.config_BFC45020)

.config_BFC45024
 *(.config_BFC45024)

.config_BFC45028
 *(.config_BFC45028)

.config_BFC4502C
 *(.config_BFC4502C)

.config_BFC45030
 *(.config_BFC45030)

.config_BFC45034
 *(.config_BFC45034)

.config_BFC45038
 *(.config_BFC45038)

.config_BFC4503C
 *(.config_BFC4503C)

.config_BFC63F40
 *(.config_BFC63F40)

.config_BFC63F44
 *(.config_BFC63F44)

.config_BFC63F48
 *(.config_BFC63F48)

.config_BFC63F4C
 *(.config_BFC63F4C)

.config_BFC63F5C
 *(.config_BFC63F5C)

.config_BFC63F6C
 *(.config_BFC63F6C)

.config_BFC63F70
 *(.config_BFC63F70)

.config_BFC63FC0
 *(.config_BFC63FC0)

.config_BFC63FC4
 *(.config_BFC63FC4)

.config_BFC63FC8
 *(.config_BFC63FC8)

.config_BFC63FCC
 *(.config_BFC63FCC)

.config_BFC63FDC
 *(.config_BFC63FDC)

.config_BFC63FEC
 *(.config_BFC63FEC)

.config_BFC63FF0
 *(.config_BFC63FF0)

.reset          0xbfc00000      0x1a4
 *(.reset)
 .reset         0xbfc00000       0x18 /tmp/ccAtE9dX.o
                0xbfc00000                _reset
 *(.reset.startup)
 .reset.startup
                0xbfc00018      0x18c /tmp/ccAtE9dX.o
                0xbfc00018                _startup

.bev_excpt      0xbfc00380       0x10
 *(.bev_handler)
 .bev_handler   0xbfc00380       0x10 /tmp/ccAtE9dX.o

.app_excpt      0x9d000180       0x10
 *(.gen_handler)
 .gen_handler   0x9d000180       0x10 /tmp/ccAtE9dX.o

.vectors        0x9d000200       0x50
                0x9d000200                . = ALIGN (0x4)
                0x00000208                __vector_offset_0 = DEFINED (__vector_dispatch_0)?(. - _ebase_address):__vector_offset_default
 *(.vector_0)
                0x9d000200                . = ALIGN (0x4)
                0x00000208                __vector_offset_1 = DEFINED (__vector_dispatch_1)?(. - _ebase_address):__vector_offset_default
 *(.vector_1)
                0x9d000200                . = ALIGN (0x4)
                0x00000208                __vector_offset_2 = DEFINED (__vector_dispatch_2)?(. - _ebase_address):__vector_offset_default
 *(.vector_2)
                0x9d000200                . = ALIGN (0x4)
                0x00000208                __vector_offset_3 = DEFINED (__vector_dispatch_3)?(. - _ebase_address):__vector_offset_default
 *(.vector_3)
                0x9d000200                . = ALIGN (0x4)
                0x00000208                __vector_offset_4 = DEFINED (__vector_dispatch_4)?(. - _ebase_address):__vector_offset_default
 *(.vector_4)
                0x9d000200                . = ALIGN (0x4)
                0x00000208                __vector_offset_5 = DEFINED (__vector_dispatch_5)?(. - _ebase_address):__vector_offset_default
 *(.vector_5)
                0x9d000200                . = ALIGN (0x4)
                0x00000208                __vector_offset_6 = DEFINED (__vector_dispatch_6)?(. - _ebase_address):__vector_offset_default
 *(.vector_6)
                0x9d000200                . = ALIGN (0x4)
                0x00000208                __vector_offset_7 = DEFINED (__vector_dispatch_7)?(. - _ebase_address):__vector_offset_default
 *(.vector_7)
                0x9d000200                . = ALIGN (0x4)
                0x00000208                __vector_offset_8 = DEFINED (__vector_dispatch_8)?(. - _ebase_address):__vector_offset_default
 *(.vector_8)
                0x9d000200                . = ALIGN (0x4)
                0x00000208                __vector_offset_9 = DEFINED (__vector_dispatch_9)?(. - _ebase_address):__vector_offset_default
 *(.vector_9)
                0x9d000200                . = ALIGN (0x4)
                0x00000208                __vector_offset_10 = DEFINED (__vector_dispatch_10)?(. - _ebase_address):__vector_offset_default
 *(.vector_10)
                0x9d000200                . = ALIGN (0x4)
                0x00000208                __vector_offset_11 = DEFINED (__vector_dispatch_11)?(. - _ebase_address):__vector_offset_default
 *(.vector_11)
                0x9d000200                . = ALIGN (0x4)
                0x00000208                __vector_offset_12 = DEFINED (__vector_dispatch_12)?(. - _ebase_address):__vector_offset_default
 *(.vector_12)
                0x9d000200                . = ALIGN (0x4)
                0x00000208                __vector_offset_13 = DEFINED (__vector_dispatch_13)?(. - _ebase_address):__vector_offset_default
 *(.vector_13)
                0x9d000200                . = ALIGN (0x4)
                0x00000208                __vector_offset_14 = DEFINED (__vector_dispatch_14)?(. - _ebase_address):__vector_offset_default
 *(.vector_14)
                0x9d000200                . = ALIGN (0x4)
                0x00000208                __vector_offset_15 = DEFINED (__vector_dispatch_15)?(. - _ebase_address):__vector_offset_default
 *(.vector_15)
                0x9d000200                . = ALIGN (0x4)
                0x00000208                __vector_offset_16 = DEFINED (__vector_dispatch_16)?(. - _ebase_address):__vector_offset_default
 *(.vector_16)
                0x9d000200                . = ALIGN (0x4)
                0x00000208                __vector_offset_17 = DEFINED (__vector_dispatch_17)?(. - _ebase_address):__vector_offset_default
 *(.vector_17)
                0x9d000200                . = ALIGN (0x4)
                0x00000208                __vector_offset_18 = DEFINED (__vector_dispatch_18)?(. - _ebase_address):__vector_offset_default
 *(.vector_18)
                0x9d000200                . = ALIGN (0x4)
                0x00000208                __vector_offset_19 = DEFINED (__vector_dispatch_19)?(. - _ebase_address):__vector_offset_default
 *(.vector_19)
                0x9d000200                . = ALIGN (0x4)
                0x00000208                __vector_offset_20 = DEFINED (__vector_dispatch_20)?(. - _ebase_address):__vector_offset_default
 *(.vector_20)
                0x9d000200                . = ALIGN (0x4)
                0x00000208                __vector_offset_21 = DEFINED (__vector_dispatch_21)?(. - _ebase_address):__vector_offset_default
 *(.vector_21)
                0x9d000200                . = ALIGN (0x4)
                0x00000208                __vector_offset_22 = DEFINED (__vector_dispatch_22)?(. - _ebase_address):__vector_offset_default
 *(.vector_22)
                0x9d000200                . = ALIGN (0x4)
                0x00000208                __vector_offset_23 = DEFINED (__vector_dispatch_23)?(. - _ebase_address):__vector_offset_default
 *(.vector_23)
                0x9d000200                . = ALIGN (0x4)
                0x00000208                __vector_offset_24 = DEFINED (__vector_dispatch_24)?(. - _ebase_address):__vector_offset_default
 *(.vector_24)
                0x9d000200                . = ALIGN (0x4)
                0x00000208                __vector_offset_25 = DEFINED (__vector_dispatch_25)?(. - _ebase_address):__vector_offset_default
 *(.vector_25)
                0x9d000200                . = ALIGN (0x4)
                0x00000208                __vector_offset_26 = DEFINED (__vector_dispatch_26)?(. - _ebase_address):__vector_offset_default
 *(.vector_26)
                0x9d000200                . = ALIGN (0x4)
                0x00000208                __vector_offset_27 = DEFINED (__vector_dispatch_27)?(. - _ebase_address):__vector_offset_default
 *(.vector_27)
                0x9d000200                . = ALIGN (0x4)
                0x00000208                __vector_offset_28 = DEFINED (__vector_dispatch_28)?(. - _ebase_address):__vector_offset_default
 *(.vector_28)
                0x9d000200                . = ALIGN (0x4)
                0x00000208                __vector_offset_29 = DEFINED (__vector_dispatch_29)?(. - _ebase_address):__vector_offset_default
 *(.vector_29)
                0x9d000200                . = ALIGN (0x4)
                0x00000208                __vector_offset_30 = DEFINED (__vector_dispatch_30)?(. - _ebase_address):__vector_offset_default
 *(.vector_30)
                0x9d000200                . = ALIGN (0x4)
                0x00000208                __vector_offset_31 = DEFINED (__vector_dispatch_31)?(. - _ebase_address):__vector_offset_default
 *(.vector_31)
                0x9d000200                . = ALIGN (0x4)
                0x00000208                __vector_offset_32 = DEFINED (__vector_dispatch_32)?(. - _ebase_address):__vector_offset_default
 *(.vector_32)
                0x9d000200                . = ALIGN (0x4)
                0x00000208                __vector_offset_33 = DEFINED (__vector_dispatch_33)?(. - _ebase_address):__vector_offset_default
 *(.vector_33)
                0x9d000200                . = ALIGN (0x4)
                0x00000208                __vector_offset_34 = DEFINED (__vector_dispatch_34)?(. - _ebase_address):__vector_offset_default
 *(.vector_34)
                0x9d000200                . = ALIGN (0x4)
                0x00000208                __vector_offset_35 = DEFINED (__vector_dispatch_35)?(. - _ebase_address):__vector_offset_default
 *(.vector_35)
                0x9d000200                . = ALIGN (0x4)
                0x00000208                __vector_offset_36 = DEFINED (__vector_dispatch_36)?(. - _ebase_address):__vector_offset_default
 *(.vector_36)
                0x9d000200                . = ALIGN (0x4)
                0x00000208                __vector_offset_37 = DEFINED (__vector_dispatch_37)?(. - _ebase_address):__vector_offset_default
 *(.vector_37)
                0x9d000200                . = ALIGN (0x4)
                0x00000208                __vector_offset_38 = DEFINED (__vector_dispatch_38)?(. - _ebase_address):__vector_offset_default
 *(.vector_38)
                0x9d000200                . = ALIGN (0x4)
                0x00000208                __vector_offset_39 = DEFINED (__vector_dispatch_39)?(. - _ebase_address):__vector_offset_default
 *(.vector_39)
                0x9d000200                . = ALIGN (0x4)
                0x00000208                __vector_offset_40 = DEFINED (__vector_dispatch_40)?(. - _ebase_address):__vector_offset_default
 *(.vector_40)
                0x9d000200                . = ALIGN (0x4)
                0x00000208                __vector_offset_41 = DEFINED (__vector_dispatch_41)?(. - _ebase_address):__vector_offset_default
 *(.vector_41)
                0x9d000200                . = ALIGN (0x4)
                0x00000208                __vector_offset_42 = DEFINED (__vector_dispatch_42)?(. - _ebase_address):__vector_offset_default
 *(.vector_42)
                0x9d000200                . = ALIGN (0x4)
                0x00000208                __vector_offset_43 = DEFINED (__vector_dispatch_43)?(. - _ebase_address):__vector_offset_default
 *(.vector_43)
                0x9d000200                . = ALIGN (0x4)
                0x00000208                __vector_offset_44 = DEFINED (__vector_dispatch_44)?(. - _ebase_address):__vector_offset_default
 *(.vector_44)
                0x9d000200                . = ALIGN (0x4)
                0x00000208                __vector_offset_45 = DEFINED (__vector_dispatch_45)?(. - _ebase_address):__vector_offset_default
 *(.vector_45)
                0x9d000200                . = ALIGN (0x4)
                0x00000208                __vector_offset_46 = DEFINED (__vector_dispatch_46)?(. - _ebase_address):__vector_offset_default
 *(.vector_46)
                0x9d000200                . = ALIGN (0x4)
                0x00000208                __vector_offset_47 = DEFINED (__vector_dispatch_47)?(. - _ebase_address):__vector_offset_default
 *(.vector_47)
                0x9d000200                . = ALIGN (0x4)
                0x00000208                __vector_offset_48 = DEFINED (__vector_dispatch_48)?(. - _ebase_address):__vector_offset_default
 *(.vector_48)
                0x9d000200                . = ALIGN (0x4)
                0x00000208                __vector_offset_49 = DEFINED (__vector_dispatch_49)?(. - _ebase_address):__vector_offset_default
 *(.vector_49)
                0x9d000200                . = ALIGN (0x4)
                0x00000208                __vector_offset_50 = DEFINED (__vector_dispatch_50)?(. - _ebase_address):__vector_offset_default
 *(.vector_50)
                0x9d000200                . = ALIGN (0x4)
                0x00000208                __vector_offset_51 = DEFINED (__vector_dispatch_51)?(. - _ebase_address):__vector_offset_default
 *(.vector_51)
                0x9d000200                . = ALIGN (0x4)
                0x00000208                __vector_offset_52 = DEFINED (__vector_dispatch_52)?(. - _ebase_address):__vector_offset_default
 *(.vector_52)
                0x9d000200                . = ALIGN (0x4)
                0x00000208                __vector_offset_53 = DEFINED (__vector_dispatch_53)?(. - _ebase_address):__vector_offset_default
 *(.vector_53)
                0x9d000200                . = ALIGN (0x4)
                0x00000208                __vector_offset_54 = DEFINED (__vector_dispatch_54)?(. - _ebase_address):__vector_offset_default
 *(.vector_54)
                0x9d000200                . = ALIGN (0x4)
                0x00000208                __vector_offset_55 = DEFINED (__vector_dispatch_55)?(. - _ebase_address):__vector_offset_default
 *(.vector_55)
                0x9d000200                . = ALIGN (0x4)
                0x00000208                __vector_offset_56 = DEFINED (__vector_dispatch_56)?(. - _ebase_address):__vector_offset_default
 *(.vector_56)
                0x9d000200                . = ALIGN (0x4)
                0x00000208                __vector_offset_57 = DEFINED (__vector_dispatch_57)?(. - _ebase_address):__vector_offset_default
 *(.vector_57)
                0x9d000200                . = ALIGN (0x4)
                0x00000208                __vector_offset_58 = DEFINED (__vector_dispatch_58)?(. - _ebase_address):__vector_offset_default
 *(.vector_58)
                0x9d000200                . = ALIGN (0x4)
                0x00000208                __vector_offset_59 = DEFINED (__vector_dispatch_59)?(. - _ebase_address):__vector_offset_default
 *(.vector_59)
                0x9d000200                . = ALIGN (0x4)
                0x00000208                __vector_offset_60 = DEFINED (__vector_dispatch_60)?(. - _ebase_address):__vector_offset_default
 *(.vector_60)
                0x9d000200                . = ALIGN (0x4)
                0x00000208                __vector_offset_61 = DEFINED (__vector_dispatch_61)?(. - _ebase_address):__vector_offset_default
 *(.vector_61)
                0x9d000200                . = ALIGN (0x4)
                0x00000208                __vector_offset_62 = DEFINED (__vector_dispatch_62)?(. - _ebase_address):__vector_offset_default
 *(.vector_62)
                0x9d000200                . = ALIGN (0x4)
                0x00000208                __vector_offset_63 = DEFINED (__vector_dispatch_63)?(. - _ebase_address):__vector_offset_default
 *(.vector_63)
                0x9d000200                . = ALIGN (0x4)
                0x00000208                __vector_offset_64 = DEFINED (__vector_dispatch_64)?(. - _ebase_address):__vector_offset_default
 *(.vector_64)
                0x9d000200                . = ALIGN (0x4)
                0x00000208                __vector_offset_65 = DEFINED (__vector_dispatch_65)?(. - _ebase_address):__vector_offset_default
 *(.vector_65)
                0x9d000200                . = ALIGN (0x4)
                0x00000208                __vector_offset_66 = DEFINED (__vector_dispatch_66)?(. - _ebase_address):__vector_offset_default
 *(.vector_66)
                0x9d000200                . = ALIGN (0x4)
                0x00000208                __vector_offset_67 = DEFINED (__vector_dispatch_67)?(. - _ebase_address):__vector_offset_default
 *(.vector_67)
                0x9d000200                . = ALIGN (0x4)
                0x00000208                __vector_offset_68 = DEFINED (__vector_dispatch_68)?(. - _ebase_address):__vector_offset_default
 *(.vector_68)
                0x9d000200                . = ALIGN (0x4)
                0x00000208                __vector_offset_69 = DEFINED (__vector_dispatch_69)?(. - _ebase_address):__vector_offset_default
 *(.vector_69)
                0x9d000200                . = ALIGN (0x4)
                0x00000208                __vector_offset_70 = DEFINED (__vector_dispatch_70)?(. - _ebase_address):__vector_offset_default
 *(.vector_70)
                0x9d000200                . = ALIGN (0x4)
                0x00000208                __vector_offset_71 = DEFINED (__vector_dispatch_71)?(. - _ebase_address):__vector_offset_default
 *(.vector_71)
                0x9d000200                . = ALIGN (0x4)
                0x00000208                __vector_offset_72 = DEFINED (__vector_dispatch_72)?(. - _ebase_address):__vector_offset_default
 *(.vector_72)
                0x9d000200                . = ALIGN (0x4)
                0x00000208                __vector_offset_73 = DEFINED (__vector_dispatch_73)?(. - _ebase_address):__vector_offset_default
 *(.vector_73)
                0x9d000200                . = ALIGN (0x4)
                0x00000208                __vector_offset_74 = DEFINED (__vector_dispatch_74)?(. - _ebase_address):__vector_offset_default
 *(.vector_74)
                0x9d000200                . = ALIGN (0x4)
                0x00000208                __vector_offset_75 = DEFINED (__vector_dispatch_75)?(. - _ebase_address):__vector_offset_default
 *(.vector_75)
                0x9d000200                . = ALIGN (0x4)
                0x00000208                __vector_offset_76 = DEFINED (__vector_dispatch_76)?(. - _ebase_address):__vector_offset_default
 *(.vector_76)
                0x9d000200                . = ALIGN (0x4)
                0x00000208                __vector_offset_77 = DEFINED (__vector_dispatch_77)?(. - _ebase_address):__vector_offset_default
 *(.vector_77)
                0x9d000200                . = ALIGN (0x4)
                0x00000208                __vector_offset_78 = DEFINED (__vector_dispatch_78)?(. - _ebase_address):__vector_offset_default
 *(.vector_78)
                0x9d000200                . = ALIGN (0x4)
                0x00000208                __vector_offset_79 = DEFINED (__vector_dispatch_79)?(. - _ebase_address):__vector_offset_default
 *(.vector_79)
                0x9d000200                . = ALIGN (0x4)
                0x00000208                __vector_offset_80 = DEFINED (__vector_dispatch_80)?(. - _ebase_address):__vector_offset_default
 *(.vector_80)
                0x9d000200                . = ALIGN (0x4)
                0x00000208                __vector_offset_81 = DEFINED (__vector_dispatch_81)?(. - _ebase_address):__vector_offset_default
 *(.vector_81)
                0x9d000200                . = ALIGN (0x4)
                0x00000208                __vector_offset_82 = DEFINED (__vector_dispatch_82)?(. - _ebase_address):__vector_offset_default
 *(.vector_82)
                0x9d000200                . = ALIGN (0x4)
                0x00000208                __vector_offset_83 = DEFINED (__vector_dispatch_83)?(. - _ebase_address):__vector_offset_default
 *(.vector_83)
                0x9d000200                . = ALIGN (0x4)
                0x00000208                __vector_offset_84 = DEFINED (__vector_dispatch_84)?(. - _ebase_address):__vector_offset_default
 *(.vector_84)
                0x9d000200                . = ALIGN (0x4)
                0x00000208                __vector_offset_85 = DEFINED (__vector_dispatch_85)?(. - _ebase_address):__vector_offset_default
 *(.vector_85)
                0x9d000200                . = ALIGN (0x4)
                0x00000208                __vector_offset_86 = DEFINED (__vector_dispatch_86)?(. - _ebase_address):__vector_offset_default
 *(.vector_86)
                0x9d000200                . = ALIGN (0x4)
                0x00000208                __vector_offset_87 = DEFINED (__vector_dispatch_87)?(. - _ebase_address):__vector_offset_default
 *(.vector_87)
                0x9d000200                . = ALIGN (0x4)
                0x00000208                __vector_offset_88 = DEFINED (__vector_dispatch_88)?(. - _ebase_address):__vector_offset_default
 *(.vector_88)
                0x9d000200                . = ALIGN (0x4)
                0x00000208                __vector_offset_89 = DEFINED (__vector_dispatch_89)?(. - _ebase_address):__vector_offset_default
 *(.vector_89)
                0x9d000200                . = ALIGN (0x4)
                0x00000208                __vector_offset_90 = DEFINED (__vector_dispatch_90)?(. - _ebase_address):__vector_offset_default
 *(.vector_90)
                0x9d000200                . = ALIGN (0x4)
                0x00000208                __vector_offset_91 = DEFINED (__vector_dispatch_91)?(. - _ebase_address):__vector_offset_default
 *(.vector_91)
                0x9d000200                . = ALIGN (0x4)
                0x00000208                __vector_offset_92 = DEFINED (__vector_dispatch_92)?(. - _ebase_address):__vector_offset_default
 *(.vector_92)
                0x9d000200                . = ALIGN (0x4)
                0x00000208                __vector_offset_93 = DEFINED (__vector_dispatch_93)?(. - _ebase_address):__vector_offset_default
 *(.vector_93)
                0x9d000200                . = ALIGN (0x4)
                0x00000208                __vector_offset_94 = DEFINED (__vector_dispatch_94)?(. - _ebase_address):__vector_offset_default
 *(.vector_94)
                0x9d000200                . = ALIGN (0x4)
                0x00000208                __vector_offset_95 = DEFINED (__vector_dispatch_95)?(. - _ebase_address):__vector_offset_default
 *(.vector_95)
                0x9d000200                . = ALIGN (0x4)
                0x00000208                __vector_offset_96 = DEFINED (__vector_dispatch_96)?(. - _ebase_address):__vector_offset_default
 *(.vector_96)
                0x9d000200                . = ALIGN (0x4)
                0x00000208                __vector_offset_97 = DEFINED (__vector_dispatch_97)?(. - _ebase_address):__vector_offset_default
 *(.vector_97)
                0x9d000200                . = ALIGN (0x4)
                0x00000208                __vector_offset_98 = DEFINED (__vector_dispatch_98)?(. - _ebase_address):__vector_offset_default
 *(.vector_98)
                0x9d000200                . = ALIGN (0x4)
                0x00000208                __vector_offset_99 = DEFINED (__vector_dispatch_99)?(. - _ebase_address):__vector_offset_default
 *(.vector_99)
                0x9d000200                . = ALIGN (0x4)
                0x00000208                __vector_offset_100 = DEFINED (__vector_dispatch_100)?(. - _ebase_address):__vector_offset_default
 *(.vector_100)
                0x9d000200                . = ALIGN (0x4)
                0x00000208                __vector_offset_101 = DEFINED (__vector_dispatch_101)?(. - _ebase_address):__vector_offset_default
 *(.vector_101)
                0x9d000200                . = ALIGN (0x4)
                0x00000208                __vector_offset_102 = DEFINED (__vector_dispatch_102)?(. - _ebase_address):__vector_offset_default
 *(.vector_102)
                0x9d000200                . = ALIGN (0x4)
                0x00000208                __vector_offset_103 = DEFINED (__vector_dispatch_103)?(. - _ebase_address):__vector_offset_default
 *(.vector_103)
                0x9d000200                . = ALIGN (0x4)
                0x00000208                __vector_offset_104 = DEFINED (__vector_dispatch_104)?(. - _ebase_address):__vector_offset_default
 *(.vector_104)
                0x9d000200                . = ALIGN (0x4)
                0x00000208                __vector_offset_105 = DEFINED (__vector_dispatch_105)?(. - _ebase_address):__vector_offset_default
 *(.vector_105)
                0x9d000200                . = ALIGN (0x4)
                0x00000208                __vector_offset_106 = DEFINED (__vector_dispatch_106)?(. - _ebase_address):__vector_offset_default
 *(.vector_106)
                0x9d000200                . = ALIGN (0x4)
                0x00000208                __vector_offset_107 = DEFINED (__vector_dispatch_107)?(. - _ebase_address):__vector_offset_default
 *(.vector_107)
                0x9d000200                . = ALIGN (0x4)
                0x00000208                __vector_offset_108 = DEFINED (__vector_dispatch_108)?(. - _ebase_address):__vector_offset_default
 *(.vector_108)
                0x9d000200                . = ALIGN (0x4)
                0x00000208                __vector_offset_109 = DEFINED (__vector_dispatch_109)?(. - _ebase_address):__vector_offset_default
 *(.vector_109)
                0x9d000200                . = ALIGN (0x4)
                0x00000208                __vector_offset_110 = DEFINED (__vector_dispatch_110)?(. - _ebase_address):__vector_offset_default
 *(.vector_110)
                0x9d000200                . = ALIGN (0x4)
                0x00000208                __vector_offset_111 = DEFINED (__vector_dispatch_111)?(. - _ebase_address):__vector_offset_default
 *(.vector_111)
                0x9d000200                . = ALIGN (0x4)
                0x00000208                __vector_offset_112 = DEFINED (__vector_dispatch_112)?(. - _ebase_address):__vector_offset_default
 *(.vector_112)
                0x9d000200                . = ALIGN (0x4)
                0x00000208                __vector_offset_113 = DEFINED (__vector_dispatch_113)?(. - _ebase_address):__vector_offset_default
 *(.vector_113)
                0x9d000200                . = ALIGN (0x4)
                0x00000208                __vector_offset_114 = DEFINED (__vector_dispatch_114)?(. - _ebase_address):__vector_offset_default
 *(.vector_114)
                0x9d000200                . = ALIGN (0x4)
                0x00000208                __vector_offset_115 = DEFINED (__vector_dispatch_115)?(. - _ebase_address):__vector_offset_default
 *(.vector_115)
                0x9d000200                . = ALIGN (0x4)
                0x00000208                __vector_offset_116 = DEFINED (__vector_dispatch_116)?(. - _ebase_address):__vector_offset_default
 *(.vector_116)
                0x9d000200                . = ALIGN (0x4)
                0x00000208                __vector_offset_117 = DEFINED (__vector_dispatch_117)?(. - _ebase_address):__vector_offset_default
 *(.vector_117)
                0x9d000200                . = ALIGN (0x4)
                0x00000208                __vector_offset_118 = DEFINED (__vector_dispatch_118)?(. - _ebase_address):__vector_offset_default
 *(.vector_118)
                0x9d000200                . = ALIGN (0x4)
                0x00000208                __vector_offset_119 = DEFINED (__vector_dispatch_119)?(. - _ebase_address):__vector_offset_default
 *(.vector_119)
                0x9d000200                . = ALIGN (0x4)
                0x00000208                __vector_offset_120 = DEFINED (__vector_dispatch_120)?(. - _ebase_address):__vector_offset_default
 *(.vector_120)
                0x9d000200                . = ALIGN (0x4)
                0x00000208                __vector_offset_121 = DEFINED (__vector_dispatch_121)?(. - _ebase_address):__vector_offset_default
 *(.vector_121)
                0x9d000200                . = ALIGN (0x4)
                0x00000208                __vector_offset_122 = DEFINED (__vector_dispatch_122)?(. - _ebase_address):__vector_offset_default
 *(.vector_122)
                0x9d000200                . = ALIGN (0x4)
                0x00000208                __vector_offset_123 = DEFINED (__vector_dispatch_123)?(. - _ebase_address):__vector_offset_default
 *(.vector_123)
                0x9d000200                . = ALIGN (0x4)
                0x00000208                __vector_offset_124 = DEFINED (__vector_dispatch_124)?(. - _ebase_address):__vector_offset_default
 *(.vector_124)
                0x9d000200                . = ALIGN (0x4)
                0x00000208                __vector_offset_125 = DEFINED (__vector_dispatch_125)?(. - _ebase_address):__vector_offset_default
 *(.vector_125)
                0x9d000200                . = ALIGN (0x4)
                0x00000208                __vector_offset_126 = DEFINED (__vector_dispatch_126)?(. - _ebase_address):__vector_offset_default
 *(.vector_126)
                0x9d000200                . = ALIGN (0x4)
                0x00000208                __vector_offset_127 = DEFINED (__vector_dispatch_127)?(. - _ebase_address):__vector_offset_default
 *(.vector_127)
                0x9d000200                . = ALIGN (0x4)
                0x00000208                __vector_offset_128 = DEFINED (__vector_dispatch_128)?(. - _ebase_address):__vector_offset_default
 *(.vector_128)
                0x9d000200                . = ALIGN (0x4)
                0x00000208                __vector_offset_129 = DEFINED (__vector_dispatch_129)?(. - _ebase_address):__vector_offset_default
 *(.vector_129)
                0x9d000200                . = ALIGN (0x4)
                0x00000208                __vector_offset_130 = DEFINED (__vector_dispatch_130)?(. - _ebase_address):__vector_offset_default
 *(.vector_130)
                0x9d000200                . = ALIGN (0x4)
                0x00000208                __vector_offset_131 = DEFINED (__vector_dispatch_131)?(. - _ebase_address):__vector_offset_default
 *(.vector_131)
                0x9d000200                . = ALIGN (0x4)
                0x00000208                __vector_offset_132 = DEFINED (__vector_dispatch_132)?(. - _ebase_address):__vector_offset_default
 *(.vector_132)
                0x9d000200                . = ALIGN (0x4)
                0x00000208                __vector_offset_133 = DEFINED (__vector_dispatch_133)?(. - _ebase_address):__vector_offset_default
 *(.vector_133)
                0x9d000200                . = ALIGN (0x4)
                0x00000208                __vector_offset_134 = DEFINED (__vector_dispatch_134)?(. - _ebase_address):__vector_offset_default
 *(.vector_134)
                0x9d000200                . = ALIGN (0x4)
                0x00000208                __vector_offset_135 = DEFINED (__vector_dispatch_135)?(. - _ebase_address):__vector_offset_default
 *(.vector_135)
                0x9d000200                . = ALIGN (0x4)
                0x00000208                __vector_offset_136 = DEFINED (__vector_dispatch_136)?(. - _ebase_address):__vector_offset_default
 *(.vector_136)
                0x9d000200                . = ALIGN (0x4)
                0x00000208                __vector_offset_137 = DEFINED (__vector_dispatch_137)?(. - _ebase_address):__vector_offset_default
 *(.vector_137)
                0x9d000200                . = ALIGN (0x4)
                0x00000208                __vector_offset_138 = DEFINED (__vector_dispatch_138)?(. - _ebase_address):__vector_offset_default
 *(.vector_138)
                0x9d000200                . = ALIGN (0x4)
                0x00000208                __vector_offset_139 = DEFINED (__vector_dispatch_139)?(. - _ebase_address):__vector_offset_default
 *(.vector_139)
                0x9d000200                . = ALIGN (0x4)
                0x00000208                __vector_offset_140 = DEFINED (__vector_dispatch_140)?(. - _ebase_address):__vector_offset_default
 *(.vector_140)
                0x9d000200                . = ALIGN (0x4)
                0x00000208                __vector_offset_141 = DEFINED (__vector_dispatch_141)?(. - _ebase_address):__vector_offset_default
 *(.vector_141)
                0x9d000200                . = ALIGN (0x4)
                0x00000208                __vector_offset_142 = DEFINED (__vector_dispatch_142)?(. - _ebase_address):__vector_offset_default
 *(.vector_142)
                0x9d000200                . = ALIGN (0x4)
                0x00000208                __vector_offset_143 = DEFINED (__vector_dispatch_143)?(. - _ebase_address):__vector_offset_default
 *(.vector_143)
                0x9d000200                . = ALIGN (0x4)
                0x00000208                __vector_offset_144 = DEFINED (__vector_dispatch_144)?(. - _ebase_address):__vector_offset_default
 *(.vector_144)
                0x9d000200                . = ALIGN (0x4)
                0x00000208                __vector_offset_145 = DEFINED (__vector_dispatch_145)?(. - _ebase_address):__vector_offset_default
 *(.vector_145)
                0x9d000200                . = ALIGN (0x4)
                0x00000208                __vector_offset_146 = DEFINED (__vector_dispatch_146)?(. - _ebase_address):__vector_offset_default
 *(.vector_146)
                0x9d000200                . = ALIGN (0x4)
                0x00000208                __vector_offset_147 = DEFINED (__vector_dispatch_147)?(. - _ebase_address):__vector_offset_default
 *(.vector_147)
                0x9d000200                . = ALIGN (0x4)
                0x00000208                __vector_offset_148 = DEFINED (__vector_dispatch_148)?(. - _ebase_address):__vector_offset_default
 *(.vector_148)
                0x9d000200                . = ALIGN (0x4)
                0x00000208                __vector_offset_149 = DEFINED (__vector_dispatch_149)?(. - _ebase_address):__vector_offset_default
 *(.vector_149)
                0x9d000200                . = ALIGN (0x4)
                0x00000208                __vector_offset_150 = DEFINED (__vector_dispatch_150)?(. - _ebase_address):__vector_offset_default
 *(.vector_150)
                0x9d000200                . = ALIGN (0x4)
                0x00000208                __vector_offset_151 = DEFINED (__vector_dispatch_151)?(. - _ebase_address):__vector_offset_default
 *(.vector_151)
                0x9d000200                . = ALIGN (0x4)
                0x00000208                __vector_offset_152 = DEFINED (__vector_dispatch_152)?(. - _ebase_address):__vector_offset_default
 *(.vector_152)
                0x9d000200                . = ALIGN (0x4)
                0x00000208                __vector_offset_153 = DEFINED (__vector_dispatch_153)?(. - _ebase_address):__vector_offset_default
 *(.vector_153)
                0x9d000200                . = ALIGN (0x4)
                0x00000208                __vector_offset_154 = DEFINED (__vector_dispatch_154)?(. - _ebase_address):__vector_offset_default
 *(.vector_154)
                0x9d000200                . = ALIGN (0x4)
                0x00000208                __vector_offset_155 = DEFINED (__vector_dispatch_155)?(. - _ebase_address):__vector_offset_default
 *(.vector_155)
                0x9d000200                . = ALIGN (0x4)
                0x00000208                __vector_offset_156 = DEFINED (__vector_dispatch_156)?(. - _ebase_address):__vector_offset_default
 *(.vector_156)
                0x9d000200                . = ALIGN (0x4)
                0x00000208                __vector_offset_157 = DEFINED (__vector_dispatch_157)?(. - _ebase_address):__vector_offset_default
 *(.vector_157)
                0x9d000200                . = ALIGN (0x4)
                0x00000208                __vector_offset_158 = DEFINED (__vector_dispatch_158)?(. - _ebase_address):__vector_offset_default
 *(.vector_158)
                0x9d000200                . = ALIGN (0x4)
                0x00000208                __vector_offset_159 = DEFINED (__vector_dispatch_159)?(. - _ebase_address):__vector_offset_default
 *(.vector_159)
                0x9d000200                . = ALIGN (0x4)
                0x00000208                __vector_offset_160 = DEFINED (__vector_dispatch_160)?(. - _ebase_address):__vector_offset_default
 *(.vector_160)
                0x9d000200                . = ALIGN (0x4)
                0x00000208                __vector_offset_161 = DEFINED (__vector_dispatch_161)?(. - _ebase_address):__vector_offset_default
 *(.vector_161)
                0x9d000200                . = ALIGN (0x4)
                0x00000208                __vector_offset_162 = DEFINED (__vector_dispatch_162)?(. - _ebase_address):__vector_offset_default
 *(.vector_162)
                0x9d000200                . = ALIGN (0x4)
                0x00000208                __vector_offset_163 = DEFINED (__vector_dispatch_163)?(. - _ebase_address):__vector_offset_default
 *(.vector_163)
                0x9d000200                . = ALIGN (0x4)
                0x00000208                __vector_offset_164 = DEFINED (__vector_dispatch_164)?(. - _ebase_address):__vector_offset_default
 *(.vector_164)
                0x9d000200                . = ALIGN (0x4)
                0x00000208                __vector_offset_165 = DEFINED (__vector_dispatch_165)?(. - _ebase_address):__vector_offset_default
 *(.vector_165)
                0x9d000200                . = ALIGN (0x4)
                0x00000208                __vector_offset_166 = DEFINED (__vector_dispatch_166)?(. - _ebase_address):__vector_offset_default
 *(.vector_166)
                0x9d000200                . = ALIGN (0x4)
                0x00000208                __vector_offset_167 = DEFINED (__vector_dispatch_167)?(. - _ebase_address):__vector_offset_default
 *(.vector_167)
                0x9d000200                . = ALIGN (0x4)
                0x00000208                __vector_offset_168 = DEFINED (__vector_dispatch_168)?(. - _ebase_address):__vector_offset_default
 *(.vector_168)
                0x9d000200                . = ALIGN (0x4)
                0x00000208                __vector_offset_169 = DEFINED (__vector_dispatch_169)?(. - _ebase_address):__vector_offset_default
 *(.vector_169)
                0x9d000200                . = ALIGN (0x4)
                0x00000208                __vector_offset_170 = DEFINED (__vector_dispatch_170)?(. - _ebase_address):__vector_offset_default
 *(.vector_170)
                0x9d000200                . = ALIGN (0x4)
                0x00000200                __vector_offset_171 = DEFINED (__vector_dispatch_171)?(. - _ebase_address):__vector_offset_default
 *(.vector_171)
 .vector_171    0x9d000200        0x8 build/V3_MCF1024/production/_ext/559960290/interrupts.o
                0x9d000200                __vector_dispatch_171
                0x9d000208                . = ALIGN (0x4)
                0x00000208                __vector_offset_172 = DEFINED (__vector_dispatch_172)?(. - _ebase_address):__vector_offset_default
 *(.vector_172)
                0x9d000208                . = ALIGN (0x4)
                0x00000208                __vector_offset_173 = DEFINED (__vector_dispatch_173)?(. - _ebase_address):__vector_offset_default
 *(.vector_173)
                0x9d000208                . = ALIGN (0x4)
                0x00000208                __vector_offset_174 = DEFINED (__vector_dispatch_174)?(. - _ebase_address):__vector_offset_default
 *(.vector_174)
                0x9d000208                . = ALIGN (0x4)
                0x00000208                __vector_offset_175 = DEFINED (__vector_dispatch_175)?(. - _ebase_address):__vector_offset_default
 *(.vector_175)
                0x9d000208                . = ALIGN (0x4)
                0x00000208                __vector_offset_176 = DEFINED (__vector_dispatch_176)?(. - _ebase_address):__vector_offset_default
 *(.vector_176)
                0x9d000208                . = ALIGN (0x4)
                0x00000208                __vector_offset_177 = DEFINED (__vector_dispatch_177)?(. - _ebase_address):__vector_offset_default
 *(.vector_177)
                0x9d000208                . = ALIGN (0x4)
                0x00000208                __vector_offset_178 = DEFINED (__vector_dispatch_178)?(. - _ebase_address):__vector_offset_default
 *(.vector_178)
                0x9d000208                . = ALIGN (0x4)
                0x00000208                __vector_offset_179 = DEFINED (__vector_dispatch_179)?(. - _ebase_address):__vector_offset_default
 *(.vector_179)
                0x9d000208                . = ALIGN (0x4)
                0x00000208                __vector_offset_180 = DEFINED (__vector_dispatch_180)?(. - _ebase_address):__vector_offset_default
 *(.vector_180)
                0x9d000208                . = ALIGN (0x4)
                0x00000208                __vector_offset_181 = DEFINED (__vector_dispatch_181)?(. - _ebase_address):__vector_offset_default
 *(.vector_181)
                0x9d000208                . = ALIGN (0x4)
                0x00000208                __vector_offset_182 = DEFINED (__vector_dispatch_182)?(. - _ebase_address):__vector_offset_default
 *(.vector_182)
                0x9d000208                . = ALIGN (0x4)
                0x00000208                __vector_offset_183 = DEFINED (__vector_dispatch_183)?(. - _ebase_address):__vector_offset_default
 *(.vector_183)
                0x9d000208                . = ALIGN (0x4)
                0x00000208                __vector_offset_184 = DEFINED (__vector_dispatch_184)?(. - _ebase_address):__vector_offset_default
 *(.vector_184)
                0x9d000208                . = ALIGN (0x4)
                0x00000208                __vector_offset_185 = DEFINED (__vector_dispatch_185)?(. - _ebase_address):__vector_offset_default
 *(.vector_185)
                0x9d000208                . = ALIGN (0x4)
                0x00000208                __vector_offset_186 = DEFINED (__vector_dispatch_186)?(. - _ebase_address):__vector_offset_default
 *(.vector_186)
                0x9d000208                . = ALIGN (0x4)
                0x00000208                __vector_offset_187 = DEFINED (__vector_dispatch_187)?(. - _ebase_address):__vector_offset_default
 *(.vector_187)
                0x9d000208                . = ALIGN (0x4)
                0x00000208                __vector_offset_188 = DEFINED (__vector_dispatch_188)?(. - _ebase_address):__vector_offset_default
 *(.vector_188)
                0x9d000208                . = ALIGN (0x4)
                0x00000208                __vector_offset_189 = DEFINED (__vector_dispatch_189)?(. - _ebase_address):__vector_offset_default
 *(.vector_189)
                0x9d000208                . = ALIGN (0x4)
                0x00000208                __vector_offset_190 = DEFINED (__vector_dispatch_190)?(. - _ebase_address):__vector_offset_default
 *(.vector_190)
                0x9d000208                . = ALIGN (0x4)
                0x00000208                __vector_offset_191 = DEFINED (__vector_dispatch_191)?(. - _ebase_address):__vector_offset_default
 *(.vector_191)
                0x9d000208                . = ALIGN (0x4)
                0x00000208                __vector_offset_192 = DEFINED (__vector_dispatch_192)?(. - _ebase_address):__vector_offset_default
 *(.vector_192)
                0x9d000208                . = ALIGN (0x4)
                0x00000208                __vector_offset_193 = DEFINED (__vector_dispatch_193)?(. - _ebase_address):__vector_offset_default
 *(.vector_193)
                0x9d000208                . = ALIGN (0x4)
                0x00000208                __vector_offset_194 = DEFINED (__vector_dispatch_194)?(. - _ebase_address):__vector_offset_default
 *(.vector_194)
                0x9d000208                . = ALIGN (0x4)
                0x00000208                __vector_offset_195 = DEFINED (__vector_dispatch_195)?(. - _ebase_address):__vector_offset_default
 *(.vector_195)
                0x9d000208                . = ALIGN (0x4)
                0x00000208                __vector_offset_196 = DEFINED (__vector_dispatch_196)?(. - _ebase_address):__vector_offset_default
 *(.vector_196)
                0x9d000208                . = ALIGN (0x4)
                0x00000208                __vector_offset_197 = DEFINED (__vector_dispatch_197)?(. - _ebase_address):__vector_offset_default
 *(.vector_197)
                0x9d000208                . = ALIGN (0x4)
                0x00000208                __vector_offset_198 = DEFINED (__vector_dispatch_198)?(. - _ebase_address):__vector_offset_default
 *(.vector_198)
                0x9d000208                . = ALIGN (0x4)
                0x00000208                __vector_offset_199 = DEFINED (__vector_dispatch_199)?(. - _ebase_address):__vector_offset_default
 *(.vector_199)
                0x9d000208                . = ALIGN (0x4)
                0x00000208                __vector_offset_200 = DEFINED (__vector_dispatch_200)?(. - _ebase_address):__vector_offset_default
 *(.vector_200)
                0x9d000208                . = ALIGN (0x4)
                0x00000208                __vector_offset_201 = DEFINED (__vector_dispatch_201)?(. - _ebase_address):__vector_offset_default
 *(.vector_201)
                0x9d000208                . = ALIGN (0x4)
                0x00000208                __vector_offset_202 = DEFINED (__vector_dispatch_202)?(. - _ebase_address):__vector_offset_default
 *(.vector_202)
                0x9d000208                . = ALIGN (0x4)
                0x00000208                __vector_offset_203 = DEFINED (__vector_dispatch_203)?(. - _ebase_address):__vector_offset_default
 *(.vector_203)
                0x9d000208                . = ALIGN (0x4)
                0x00000208                __vector_offset_204 = DEFINED (__vector_dispatch_204)?(. - _ebase_address):__vector_offset_default
 *(.vector_204)
                0x9d000208                . = ALIGN (0x4)
                0x00000208                __vector_offset_205 = DEFINED (__vector_dispatch_205)?(. - _ebase_address):__vector_offset_default
 *(.vector_205)
                0x9d000208                . = ALIGN (0x4)
                0x00000208                __vector_offset_206 = DEFINED (__vector_dispatch_206)?(. - _ebase_address):__vector_offset_default
 *(.vector_206)
                0x9d000208                . = ALIGN (0x4)
                0x00000208                __vector_offset_207 = DEFINED (__vector_dispatch_207)?(. - _ebase_address):__vector_offset_default
 *(.vector_207)
                0x9d000208                . = ALIGN (0x4)
                0x00000208                __vector_offset_208 = DEFINED (__vector_dispatch_208)?(. - _ebase_address):__vector_offset_default
 *(.vector_208)
                0x9d000208                . = ALIGN (0x4)
                0x00000208                __vector_offset_209 = DEFINED (__vector_dispatch_209)?(. - _ebase_address):__vector_offset_default
 *(.vector_209)
                0x9d000208                . = ALIGN (0x4)
                0x00000208                __vector_offset_210 = DEFINED (__vector_dispatch_210)?(. - _ebase_address):__vector_offset_default
 *(.vector_210)
                0x9d000208                . = ALIGN (0x4)
                0x00000208                __vector_offset_211 = DEFINED (__vector_dispatch_211)?(. - _ebase_address):__vector_offset_default
 *(.vector_211)
                0x9d000208                . = ALIGN (0x4)
                0x00000208                __vector_offset_212 = DEFINED (__vector_dispatch_212)?(. - _ebase_address):__vector_offset_default
 *(.vector_212)
                0x9d000208                . = ALIGN (0x4)
                0x00000208                __vector_offset_213 = DEFINED (__vector_dispatch_213)?(. - _ebase_address):__vector_offset_default
 *(.vector_213)
                0x9d000208                . = ALIGN (0x4)
                0x00000208                __vector_offset_214 = DEFINED (__vector_dispatch_214)?(. - _ebase_address):__vector_offset_default
 *(.vector_214)
                0x9d000208                . = ALIGN (0x4)
                0x00000208                __vector_offset_215 = DEFINED (__vector_dispatch_215)?(. - _ebase_address):__vector_offset_default
 *(.vector_215)
                0x9d000208                . = ALIGN (0x4)
                0x00000208                __vector_offset_216 = DEFINED (__vector_dispatch_216)?(. - _ebase_address):__vector_offset_default
 *(.vector_216)
                0x9d000208                . = ALIGN (0x4)
                0x00000208                __vector_offset_217 = DEFINED (__vector_dispatch_217)?(. - _ebase_address):__vector_offset_default
 *(.vector_217)
                0x9d000208                . = ALIGN (0x4)
                0x00000208                __vector_offset_218 = DEFINED (__vector_dispatch_218)?(. - _ebase_address):__vector_offset_default
 *(.vector_218)
                0x9d000208                . = ALIGN (0x4)
                0x00000208                __vector_offset_219 = DEFINED (__vector_dispatch_219)?(. - _ebase_address):__vector_offset_default
 *(.vector_219)
                0x9d000208                . = ALIGN (0x4)
                0x00000208                __vector_offset_220 = DEFINED (__vector_dispatch_220)?(. - _ebase_address):__vector_offset_default
 *(.vector_220)
                0x9d000208                . = ALIGN (0x4)
                0x00000208                __vector_offset_221 = DEFINED (__vector_dispatch_221)?(. - _ebase_address):__vector_offset_default
 *(.vector_221)
                0x9d000208                . = ALIGN (0x4)
                0x00000208                __vector_offset_222 = DEFINED (__vector_dispatch_222)?(. - _ebase_address):__vector_offset_default
 *(.vector_222)
                0x9d000208                . = ALIGN (0x4)
                0x00000208                __vector_offset_223 = DEFINED (__vector_dispatch_223)?(. - _ebase_address):__vector_offset_default
 *(.vector_223)
                0x9d000208                . = ALIGN (0x4)
                0x00000208                __vector_offset_224 = DEFINED (__vector_dispatch_224)?(. - _ebase_address):__vector_offset_default
 *(.vector_224)
                0x9d000208                . = ALIGN (0x4)
                0x00000208                __vector_offset_225 = DEFINED (__vector_dispatch_225)?(. - _ebase_address):__vector_offset_default
 *(.vector_225)
                0x9d000208                . = ALIGN (0x4)
                0x00000208                __vector_offset_226 = DEFINED (__vector_dispatch_226)?(. - _ebase_address):__vector_offset_default
 *(.vector_226)
                0x9d000208                . = ALIGN (0x4)
                0x00000208                __vector_offset_227 = DEFINED (__vector_dispatch_227)?(. - _ebase_address):__vector_offset_default
 *(.vector_227)
                0x9d000208                . = ALIGN (0x4)
                0x00000208                __vector_offset_228 = DEFINED (__vector_dispatch_228)?(. - _ebase_address):__vector_offset_default
 *(.vector_228)
                0x9d000208                . = ALIGN (0x4)
                0x00000208                __vector_offset_229 = DEFINED (__vector_dispatch_229)?(. - _ebase_address):__vector_offset_default
 *(.vector_229)
                0x9d000208                . = ALIGN (0x4)
                0x00000208                __vector_offset_230 = DEFINED (__vector_dispatch_230)?(. - _ebase_address):__vector_offset_default
 *(.vector_230)
                0x9d000208                . = ALIGN (0x4)
                0x00000208                __vector_offset_231 = DEFINED (__vector_dispatch_231)?(. - _ebase_address):__vector_offset_default
 *(.vector_231)
                0x9d000208                . = ALIGN (0x4)
                0x00000208                __vector_offset_232 = DEFINED (__vector_dispatch_232)?(. - _ebase_address):__vector_offset_default
 *(.vector_232)
                0x9d000208                . = ALIGN (0x4)
                0x00000208                __vector_offset_233 = DEFINED (__vector_dispatch_233)?(. - _ebase_address):__vector_offset_default
 *(.vector_233)
                0x9d000208                . = ALIGN (0x4)
                0x00000208                __vector_offset_234 = DEFINED (__vector_dispatch_234)?(. - _ebase_address):__vector_offset_default
 *(.vector_234)
                0x9d000208                . = ALIGN (0x4)
                0x00000208                __vector_offset_235 = DEFINED (__vector_dispatch_235)?(. - _ebase_address):__vector_offset_default
 *(.vector_235)
                0x9d000208                . = ALIGN (0x4)
                0x00000208                __vector_offset_236 = DEFINED (__vector_dispatch_236)?(. - _ebase_address):__vector_offset_default
 *(.vector_236)
                0x9d000208                . = ALIGN (0x4)
                0x00000208                __vector_offset_237 = DEFINED (__vector_dispatch_237)?(. - _ebase_address):__vector_offset_default
 *(.vector_237)
                0x9d000208                . = ALIGN (0x4)
                0x00000208                __vector_offset_238 = DEFINED (__vector_dispatch_238)?(. - _ebase_address):__vector_offset_default
 *(.vector_238)
                0x9d000208                . = ALIGN (0x4)
                0x00000208                __vector_offset_239 = DEFINED (__vector_dispatch_239)?(. - _ebase_address):__vector_offset_default
 *(.vector_239)
                0x9d000208                . = ALIGN (0x4)
                0x00000208                __vector_offset_240 = DEFINED (__vector_dispatch_240)?(. - _ebase_address):__vector_offset_default
 *(.vector_240)
                0x9d000208                . = ALIGN (0x4)
                0x00000208                __vector_offset_241 = DEFINED (__vector_dispatch_241)?(. - _ebase_address):__vector_offset_default
 *(.vector_241)
                0x9d000208                . = ALIGN (0x4)
                0x00000208                __vector_offset_242 = DEFINED (__vector_dispatch_242)?(. - _ebase_address):__vector_offset_default
 *(.vector_242)
                0x9d000208                . = ALIGN (0x4)
                0x00000208                __vector_offset_243 = DEFINED (__vector_dispatch_243)?(. - _ebase_address):__vector_offset_default
 *(.vector_243)
                0x9d000208                . = ALIGN (0x4)
                0x00000208                __vector_offset_244 = DEFINED (__vector_dispatch_244)?(. - _ebase_address):__vector_offset_default
 *(.vector_244)
                0x9d000208                . = ALIGN (0x4)
                0x00000208                __vector_offset_245 = DEFINED (__vector_dispatch_245)?(. - _ebase_address):__vector_offset_default
 *(.vector_245)
                0x9d000208                . = ALIGN (0x4)
                0x00000208                __vector_offset_246 = DEFINED (__vector_dispatch_246)?(. - _ebase_address):__vector_offset_default
 *(.vector_246)
                0x9d000208                . = ALIGN (0x4)
                0x00000208                __vector_offset_247 = DEFINED (__vector_dispatch_247)?(. - _ebase_address):__vector_offset_default
 *(.vector_247)
                0x9d000208                . = ALIGN (0x4)
                0x00000208                __vector_offset_248 = DEFINED (__vector_dispatch_248)?(. - _ebase_address):__vector_offset_default
 *(.vector_248)
                0x9d000208                . = ALIGN (0x4)
                0x00000208                __vector_offset_249 = DEFINED (__vector_dispatch_249)?(. - _ebase_address):__vector_offset_default
 *(.vector_249)
                0x9d000208                . = ALIGN (0x4)
                0x00000208                __vector_offset_250 = DEFINED (__vector_dispatch_250)?(. - _ebase_address):__vector_offset_default
 *(.vector_250)
                0x9d000208                . = ALIGN (0x4)
                0x00000208                __vector_offset_251 = DEFINED (__vector_dispatch_251)?(. - _ebase_address):__vector_offset_default
 *(.vector_251)
                0x9d000208                . = ALIGN (0x4)
                0x00000208                __vector_offset_252 = DEFINED (__vector_dispatch_252)?(. - _ebase_address):__vector_offset_default
 *(.vector_252)
                0x9d000208                . = ALIGN (0x4)
                0x00000208                __vector_offset_253 = DEFINED (__vector_dispatch_253)?(. - _ebase_address):__vector_offset_default
 *(.vector_253)
                0x9d000208                . = ALIGN (0x4)
                0x00000208                __vector_offset_254 = DEFINED (__vector_dispatch_254)?(. - _ebase_address):__vector_offset_default
 *(.vector_254)
                0x9d000208                . = ALIGN (0x4)
                0x00000208                __vector_offset_255 = DEFINED (__vector_dispatch_255)?(. - _ebase_address):__vector_offset_default
 *(.vector_255)
                0x9d000208                . = ALIGN (0x4)
                0x00000208                __vector_offset_default = (. - _ebase_address)
 *(.vector_default)
 .vector_default
                0x9d000208       0x48 /opt/microchip/xc32/v2.50/bin/bin/../../lib/gcc/pic32mx/4.8.3/../../../../pic32mx/lib/fpu64/libpic32.a(defaultinterrupt.o)
                0x9d000208                _DefaultInterrupt

.startup
 *(.startup)

.text           0x9d000250        0x0
 *(.stub .gnu.linkonce.t.*)
 *(.text.*personality*)
 *(.mips16.fn.*)
 *(.mips16.call.*)
 *(.gnu.warning)
                0x9d000250                . = ALIGN (0x4)

.init           0x9d000250        0x0
 *crti.o(.init)
 *crtbegin.o(.init)
 *(EXCLUDE_FILE(*crtn.o *crtend?.o *crtend.o) .init)
 *crtend.o(.init)
 *crtn.o(.init)
                0x9d000250                . = ALIGN (0x4)

.fini           0x9d000250        0x0
 *(.fini)
                0x9d000250                . = ALIGN (0x4)

.preinit_array  0x9d000250        0x0
                0x9d000250                PROVIDE (__preinit_array_start, .)
 *(.preinit_array)
                0x9d000250                PROVIDE (__preinit_array_end, .)
                0x9d000250                . = ALIGN (0x4)

.init_array     0x9d000250        0x0
                0x9d000250                PROVIDE (__init_array_start, .)
 *(SORT(.init_array.*))
 *(.init_array)
                0x9d000250                PROVIDE (__init_array_end, .)
                0x9d000250                . = ALIGN (0x4)

.fini_array     0x9d000250        0x0
                0x9d000250                PROVIDE (__fini_array_start, .)
 *(SORT(.fini_array.*))
 *(.fini_array)
                0x9d000250                PROVIDE (__fini_array_end, .)
                0x9d000250                . = ALIGN (0x4)

.ctors          0x9d000250        0x0
 *crtbegin.o(.ctors)
 *crtbegin?.o(.ctors)
 *(EXCLUDE_FILE(*crtend?.o *crtend.o) .ctors)
 *(SORT(.ctors.*))
 *(.ctors)
                0x9d000250                . = ALIGN (0x4)

.dtors          0x9d000250        0x0
 *crtbegin.o(.dtors)
 *crtbegin?.o(.dtors)
 *(EXCLUDE_FILE(*crtend?.o *crtend.o) .dtors)
 *(SORT(.dtors.*))
 *(.dtors)
                0x9d000250                . = ALIGN (0x4)

.rodata         0x9d000250        0x0
 *(.gnu.linkonce.r.*)
 *(.rodata1)
                0x9d000250                . = ALIGN (0x4)

.sdata2         0x9fc20490        0x0
 *(.sdata2 .sdata2.* .gnu.linkonce.s2.*)
                0x9fc20490                . = ALIGN (0x4)

.sbss2          0x9fc20490        0x0
 *(.sbss2 .sbss2.* .gnu.linkonce.sb2.*)
                0x9fc20490                . = ALIGN (0x4)

.eh_frame_hdr
 *(.eh_frame_hdr)
                0x9fc20490                . = ALIGN (0x4)

.eh_frame
 *(.eh_frame)
                0x9fc20490                . = ALIGN (0x4)

.gcc_except_table
 *(.gcc_except_table .gcc_except_table.*)
                0x9fc20490                . = ALIGN (0x4)

.dbg_data       0x80000000        0x0
                0x80000000                . = (. + DEFINED (_DEBUGGER)?0x200:0x0)
                0x80000000                . = (. + DEFINED (_DEBUGGER)?0x80:0x0)
                0x80000000                . = (. + DEFINED (_DEBUGGER)?0x100:0x0)

.jcr            0x80000000        0x0
 *(.jcr)
                0x80000000                . = ALIGN (0x4)

.eh_frame
 *(.eh_frame)
                0x80000000                . = ALIGN (0x4)

.gcc_except_table
 *(.gcc_except_table .gcc_except_table.*)
                0x80000000                . = ALIGN (0x4)

.persist        0x80000000        0x0
                0x80000000                _persist_begin = .
 *(.persist .persist.*)
                0x80000000                . = ALIGN (0x4)
                0x80000000                _persist_end = .

.data           0x80000000        0x0
 *(.gnu.linkonce.d.*)
 *(.data1)
                0x80000000                . = ALIGN (0x4)
                0x80000000                . = .
                0x80007ff0                _gp = (ALIGN (0x10) + 0x7ff0)

.got            0x80000000        0x0
 *(.got.plt)
 *(.got)
                0x80000000                . = ALIGN (0x4)

.sdata          0x80000000      0x188
                0x80000000                _sdata_begin = .
 *(.sdata .sdata.* .gnu.linkonce.s.*)
 .sdata         0x80000000       0x6c build/V3_MCF1024/production/_ext/1639450193/driver_ADC.o
 .sdata         0x8000006c        0x4 build/V3_MCF1024/production/_ext/1639450193/driver_PWM.o
 .sdata         0x80000070        0x4 build/V3_MCF1024/production/_ext/1375476428/device_stat.o
 .sdata         0x80000074       0x10 build/V3_MCF1024/production/_ext/1375476428/VCU_CANdata.o
 .sdata         0x80000084       0x8c build/V3_MCF1024/production/_ext/1200941409/application_software.o
 .sdata         0x80000110       0x78 build/V3_MCF1024/production/_ext/1200941409/state_engine.o
                0x80000188                . = ALIGN (0x4)
                0x80000188                _sdata_end = .

.lit8
 *(.lit8)

.lit4
 *(.lit4)
                0x80000188                . = ALIGN (0x4)
                0x80000188                _data_end = .
                0x80000188                _bss_begin = .

.sbss           0x80000188      0x218
                0x80000188                _sbss_begin = .
 *(.dynsbss)
 *(.sbss .sbss.* .gnu.linkonce.sb.*)
 .sbss          0x80000188        0x8 build/V3_MCF1024/production/_ext/559960290/exceptions.o
 .sbss          0x80000190       0x3c build/V3_MCF1024/production/_ext/1639450193/driver_ADC.o
 .sbss          0x800001cc       0x1c build/V3_MCF1024/production/_ext/1639450193/driver_GPIO.o
 .sbss          0x800001e8       0x14 build/V3_MCF1024/production/_ext/1639450193/driver_SPI.o
 .sbss          0x800001fc       0x10 build/V3_MCF1024/production/_ext/1639450193/driver_UART.o
 .sbss          0x8000020c        0x4 build/V3_MCF1024/production/_ext/1639450193/driver_CANbus.o
 .sbss          0x80000210        0x4 build/V3_MCF1024/production/_ext/1375476428/diagnostics.o
 .sbss          0x80000214       0xa0 build/V3_MCF1024/production/_ext/1375476428/tuning.o
 .sbss          0x800002b4       0x20 build/V3_MCF1024/production/_ext/1375476428/VCU_CANdata.o
 .sbss          0x800002d4       0x60 build/V3_MCF1024/production/_ext/1200941409/application_software.o
 .sbss          0x80000334       0x64 build/V3_MCF1024/production/_ext/1200941409/state_engine.o
 *(.scommon)
 .scommon       0x80000398        0x8 build/V3_MCF1024/production/_ext/1961884374/plib_mcpwm.o
                0x80000398                mcpwmPriEventObj
                0x800003a0                _sbss_end = .
                0x800003a0                . = ALIGN (0x4)

.bss            0x800003a0        0x0
 *(.dynbss)
 *(COMMON)
                0x800003a0                . = ALIGN ((. != 0x0)?0x4:0x1)
                0x800003a0                . = ALIGN (0x4)
                0x800003a0                _end = .
                0x800003a0                _bss_end = .
                0x00040000                _bmxdudba_address = 0x40000
                0x00040000                _bmxdupba_address = 0x40000

/DISCARD/
 *(.pdr)
 *(.rel.dyn)
 *(.note.GNU-stack)
 *(.note.GNU-stack)
 *(.gnu_debuglink)
 *(.gnu.lto_*)
 *(.discard)

.gptab.sdata
 *(.gptab.data)
 *(.gptab.sdata)

.gptab.sbss
 *(.gptab.bss)
 *(.gptab.sbss)

.mdebug.abi32   0x00000000        0x0
 *(.mdebug.abi32)
 .mdebug.abi32  0x00000000        0x0 build/V3_MCF1024/production/_ext/1972949787/plib_adchs.o
 .mdebug.abi32  0x00000000        0x0 build/V3_MCF1024/production/_ext/1971181624/plib_canfd1.o
 .mdebug.abi32  0x00000000        0x0 build/V3_MCF1024/production/_ext/894868023/plib_cdac1.o
 .mdebug.abi32  0x00000000        0x0 build/V3_MCF1024/production/_ext/894868023/plib_cdac2.o
 .mdebug.abi32  0x00000000        0x0 build/V3_MCF1024/production/_ext/894868023/plib_cdac3.o
 .mdebug.abi32  0x00000000        0x0 build/V3_MCF1024/production/_ext/444508452/plib_clk.o
 .mdebug.abi32  0x00000000        0x0 build/V3_MCF1024/production/_ext/916064250/plib_eeprom.o
 .mdebug.abi32  0x00000000        0x0 build/V3_MCF1024/production/_ext/894790895/plib_evic.o
 .mdebug.abi32  0x00000000        0x0 build/V3_MCF1024/production/_ext/894737067/plib_gpio.o
 .mdebug.abi32  0x00000000        0x0 build/V3_MCF1024/production/_ext/1961884374/plib_mcpwm.o
 .mdebug.abi32  0x00000000        0x0 build/V3_MCF1024/production/_ext/1340093086/plib_spi4_master.o
 .mdebug.abi32  0x00000000        0x0 build/V3_MCF1024/production/_ext/894334124/plib_uart1.o
 .mdebug.abi32  0x00000000        0x0 build/V3_MCF1024/production/_ext/1780272356/xc32_monitor.o
 .mdebug.abi32  0x00000000        0x0 build/V3_MCF1024/production/_ext/559960290/initialization.o
 .mdebug.abi32  0x00000000        0x0 build/V3_MCF1024/production/_ext/559960290/interrupts.o
 .mdebug.abi32  0x00000000        0x0 build/V3_MCF1024/production/_ext/559960290/exceptions.o
 .mdebug.abi32  0x00000000        0x0 build/V3_MCF1024/production/_ext/1639450193/driver_ADC.o
 .mdebug.abi32  0x00000000        0x0 build/V3_MCF1024/production/_ext/1639450193/driver_GPIO.o
 .mdebug.abi32  0x00000000        0x0 build/V3_MCF1024/production/_ext/1639450193/driver_PWM.o
 .mdebug.abi32  0x00000000        0x0 build/V3_MCF1024/production/_ext/1639450193/driver_SPI.o
 .mdebug.abi32  0x00000000        0x0 build/V3_MCF1024/production/_ext/1639450193/driver_UART.o
 .mdebug.abi32  0x00000000        0x0 build/V3_MCF1024/production/_ext/1639450193/driver_CANbus.o
 .mdebug.abi32  0x00000000        0x0 build/V3_MCF1024/production/_ext/1375476428/diagnostics.o
 .mdebug.abi32  0x00000000        0x0 build/V3_MCF1024/production/_ext/1375476428/fastmath.o
 .mdebug.abi32  0x00000000        0x0 build/V3_MCF1024/production/_ext/1375476428/tuning.o
 .mdebug.abi32  0x00000000        0x0 build/V3_MCF1024/production/_ext/1375476428/device_stat.o
 .mdebug.abi32  0x00000000        0x0 build/V3_MCF1024/production/_ext/1375476428/VCU_CANdata.o
 .mdebug.abi32  0x00000000        0x0 build/V3_MCF1024/production/_ext/1200941409/application_software.o
 .mdebug.abi32  0x00000000        0x0 build/V3_MCF1024/production/_ext/1200941409/fault.o
 .mdebug.abi32  0x00000000        0x0 build/V3_MCF1024/production/_ext/1200941409/state_engine.o
 .mdebug.abi32  0x00000000        0x0 build/V3_MCF1024/production/_ext/1360937237/main.o
 .mdebug.abi32  0x00000000        0x0 /opt/microchip/xc32/v2.50/bin/bin/../../lib/gcc/pic32mx/4.8.3/../../../../pic32mx/lib/fpu64/libpic32.a(default-on-reset.o)
 .mdebug.abi32  0x00000000        0x0 /opt/microchip/xc32/v2.50/bin/bin/../../lib/gcc/pic32mx/4.8.3/../../../../pic32mx/lib/fpu64/libpic32.a(default-on-bootstrap.o)
 .mdebug.abi32  0x00000000        0x0 /opt/microchip/xc32/v2.50/bin/bin/../../lib/gcc/pic32mx/4.8.3/../../../../pic32mx/lib/fpu64/libpic32.a(defaultinterrupt.o)
 .mdebug.abi32  0x00000000        0x0 /opt/microchip/xc32/v2.50/bin/bin/../../lib/gcc/pic32mx/4.8.3/../../../../pic32mx/lib/fpu64/libmfd.a(s_cos.o)
 .mdebug.abi32  0x00000000        0x0 /opt/microchip/xc32/v2.50/bin/bin/../../lib/gcc/pic32mx/4.8.3/../../../../pic32mx/lib/fpu64/libmfd.a(s_fabs.o)
 .mdebug.abi32  0x00000000        0x0 /opt/microchip/xc32/v2.50/bin/bin/../../lib/gcc/pic32mx/4.8.3/../../../../pic32mx/lib/fpu64/libmfd.a(s_sin.o)
 .mdebug.abi32  0x00000000        0x0 /opt/microchip/xc32/v2.50/bin/bin/../../lib/gcc/pic32mx/4.8.3/../../../../pic32mx/lib/fpu64/libmfd.a(pic32_w_sqrt.o)
 .mdebug.abi32  0x00000000        0x0 /opt/microchip/xc32/v2.50/bin/bin/../../lib/gcc/pic32mx/4.8.3/../../../../pic32mx/lib/fpu64/libmfd.a(e_rem_pio2.o)
 .mdebug.abi32  0x00000000        0x0 /opt/microchip/xc32/v2.50/bin/bin/../../lib/gcc/pic32mx/4.8.3/../../../../pic32mx/lib/fpu64/libmfd.a(k_cos.o)
 .mdebug.abi32  0x00000000        0x0 /opt/microchip/xc32/v2.50/bin/bin/../../lib/gcc/pic32mx/4.8.3/../../../../pic32mx/lib/fpu64/libmfd.a(k_sin.o)
 .mdebug.abi32  0x00000000        0x0 /opt/microchip/xc32/v2.50/bin/bin/../../lib/gcc/pic32mx/4.8.3/../../../../pic32mx/lib/fpu64/libpic32.a(errno.o)

.mdebug.abiN32
 *(.mdebug.abiN32)

.mdebug.abi64
 *(.mdebug.abi64)

.mdebug.abiO64
 *(.mdebug.abiO64)

.mdebug.eabi32
 *(.mdebug.eabi32)

.mdebug.eabi64
 *(.mdebug.eabi64)

.gcc_compiled_long32
 *(.gcc_compiled_long32)

.gcc_compiled_long64
 *(.gcc_compiled_long64)

.stab
 *(.stab)

.stabstr
 *(.stabstr)

.stab.excl
 *(.stab.excl)

.stab.exclstr
 *(.stab.exclstr)

.stab.index
 *(.stab.index)

.stab.indexstr
 *(.stab.indexstr)

.comment        0x00000000       0x3c
 *(.comment)
 .comment       0x00000000       0x3c build/V3_MCF1024/production/_ext/1972949787/plib_adchs.o
                                 0x3d (size before relaxing)
 .comment       0x00000000       0x3d build/V3_MCF1024/production/_ext/1971181624/plib_canfd1.o
 .comment       0x00000000       0x3d build/V3_MCF1024/production/_ext/894868023/plib_cdac1.o
 .comment       0x00000000       0x3d build/V3_MCF1024/production/_ext/894868023/plib_cdac2.o
 .comment       0x00000000       0x3d build/V3_MCF1024/production/_ext/894868023/plib_cdac3.o
 .comment       0x00000000       0x3d build/V3_MCF1024/production/_ext/444508452/plib_clk.o
 .comment       0x00000000       0x3d build/V3_MCF1024/production/_ext/916064250/plib_eeprom.o
 .comment       0x00000000       0x3d build/V3_MCF1024/production/_ext/894790895/plib_evic.o
 .comment       0x00000000       0x3d build/V3_MCF1024/production/_ext/894737067/plib_gpio.o
 .comment       0x00000000       0x3d build/V3_MCF1024/production/_ext/1961884374/plib_mcpwm.o
 .comment       0x00000000       0x3d build/V3_MCF1024/production/_ext/1340093086/plib_spi4_master.o
 .comment       0x00000000       0x3d build/V3_MCF1024/production/_ext/894334124/plib_uart1.o
 .comment       0x00000000       0x3d build/V3_MCF1024/production/_ext/1780272356/xc32_monitor.o
 .comment       0x00000000       0x3d build/V3_MCF1024/production/_ext/559960290/initialization.o
 .comment       0x00000000       0x3d build/V3_MCF1024/production/_ext/559960290/interrupts.o
 .comment       0x00000000       0x3d build/V3_MCF1024/production/_ext/559960290/exceptions.o
 .comment       0x00000000       0x3d build/V3_MCF1024/production/_ext/1639450193/driver_ADC.o
 .comment       0x00000000       0x3d build/V3_MCF1024/production/_ext/1639450193/driver_GPIO.o
 .comment       0x00000000       0x3d build/V3_MCF1024/production/_ext/1639450193/driver_PWM.o
 .comment       0x00000000       0x3d build/V3_MCF1024/production/_ext/1639450193/driver_SPI.o
 .comment       0x00000000       0x3d build/V3_MCF1024/production/_ext/1639450193/driver_UART.o
 .comment       0x00000000       0x3d build/V3_MCF1024/production/_ext/1639450193/driver_CANbus.o
 .comment       0x00000000       0x3d build/V3_MCF1024/production/_ext/1375476428/diagnostics.o
 .comment       0x00000000       0x3d build/V3_MCF1024/production/_ext/1375476428/fastmath.o
 .comment       0x00000000       0x3d build/V3_MCF1024/production/_ext/1375476428/tuning.o
 .comment       0x00000000       0x3d build/V3_MCF1024/production/_ext/1375476428/device_stat.o
 .comment       0x00000000       0x3d build/V3_MCF1024/production/_ext/1375476428/VCU_CANdata.o
 .comment       0x00000000       0x3d build/V3_MCF1024/production/_ext/1200941409/application_software.o
 .comment       0x00000000       0x3d build/V3_MCF1024/production/_ext/1200941409/fault.o
 .comment       0x00000000       0x3d build/V3_MCF1024/production/_ext/1200941409/state_engine.o
 .comment       0x00000000       0x3d build/V3_MCF1024/production/_ext/1360937237/main.o
 .comment       0x00000000       0x3d /opt/microchip/xc32/v2.50/bin/bin/../../lib/gcc/pic32mx/4.8.3/../../../../pic32mx/lib/fpu64/libpic32.a(default-on-reset.o)
 .comment       0x00000000       0x3d /opt/microchip/xc32/v2.50/bin/bin/../../lib/gcc/pic32mx/4.8.3/../../../../pic32mx/lib/fpu64/libpic32.a(default-on-bootstrap.o)
 .comment       0x00000000       0x3d /opt/microchip/xc32/v2.50/bin/bin/../../lib/gcc/pic32mx/4.8.3/../../../../pic32mx/lib/fpu64/libpic32.a(defaultinterrupt.o)
 .comment       0x00000000       0x3d /opt/microchip/xc32/v2.50/bin/bin/../../lib/gcc/pic32mx/4.8.3/../../../../pic32mx/lib/fpu64/libmfd.a(s_cos.o)
 .comment       0x00000000       0x3d /opt/microchip/xc32/v2.50/bin/bin/../../lib/gcc/pic32mx/4.8.3/../../../../pic32mx/lib/fpu64/libmfd.a(s_fabs.o)
 .comment       0x00000000       0x3d /opt/microchip/xc32/v2.50/bin/bin/../../lib/gcc/pic32mx/4.8.3/../../../../pic32mx/lib/fpu64/libmfd.a(s_sin.o)
 .comment       0x00000000       0x3d /opt/microchip/xc32/v2.50/bin/bin/../../lib/gcc/pic32mx/4.8.3/../../../../pic32mx/lib/fpu64/libmfd.a(pic32_w_sqrt.o)
 .comment       0x00000000       0x3d /opt/microchip/xc32/v2.50/bin/bin/../../lib/gcc/pic32mx/4.8.3/../../../../pic32mx/lib/fpu64/libmfd.a(e_rem_pio2.o)
 .comment       0x00000000       0x3d /opt/microchip/xc32/v2.50/bin/bin/../../lib/gcc/pic32mx/4.8.3/../../../../pic32mx/lib/fpu64/libmfd.a(k_cos.o)
 .comment       0x00000000       0x3d /opt/microchip/xc32/v2.50/bin/bin/../../lib/gcc/pic32mx/4.8.3/../../../../pic32mx/lib/fpu64/libmfd.a(k_sin.o)
 .comment       0x00000000       0x3d /opt/microchip/xc32/v2.50/bin/bin/../../lib/gcc/pic32mx/4.8.3/../../../../pic32mx/lib/fpu64/libpic32.a(errno.o)

.debug
 *.elf(.debug)
 *(.debug)

.line
 *.elf(.line)
 *(.line)

.debug_srcinfo
 *.elf(.debug_srcinfo)
 *(.debug_srcinfo)

.debug_sfnames
 *.elf(.debug_sfnames)
 *(.debug_sfnames)

.debug_aranges  0x00000000      0x9a0
 *.elf(.debug_aranges)
 *(.debug_aranges)
 .debug_aranges
                0x00000000       0x88 build/V3_MCF1024/production/_ext/1972949787/plib_adchs.o
 .debug_aranges
                0x00000088       0x80 build/V3_MCF1024/production/_ext/1971181624/plib_canfd1.o
 .debug_aranges
                0x00000108       0x28 build/V3_MCF1024/production/_ext/894868023/plib_cdac1.o
 .debug_aranges
                0x00000130       0x28 build/V3_MCF1024/production/_ext/894868023/plib_cdac2.o
 .debug_aranges
                0x00000158       0x28 build/V3_MCF1024/production/_ext/894868023/plib_cdac3.o
 .debug_aranges
                0x00000180       0x20 build/V3_MCF1024/production/_ext/444508452/plib_clk.o
 .debug_aranges
                0x000001a0       0x58 build/V3_MCF1024/production/_ext/916064250/plib_eeprom.o
 .debug_aranges
                0x000001f8       0x68 build/V3_MCF1024/production/_ext/894790895/plib_evic.o
 .debug_aranges
                0x00000260       0x60 build/V3_MCF1024/production/_ext/894737067/plib_gpio.o
 .debug_aranges
                0x000002c0       0xb0 build/V3_MCF1024/production/_ext/1961884374/plib_mcpwm.o
 .debug_aranges
                0x00000370       0x48 build/V3_MCF1024/production/_ext/1340093086/plib_spi4_master.o
 .debug_aranges
                0x000003b8       0x80 build/V3_MCF1024/production/_ext/894334124/plib_uart1.o
 .debug_aranges
                0x00000438       0x28 build/V3_MCF1024/production/_ext/1780272356/xc32_monitor.o
 .debug_aranges
                0x00000460       0x20 build/V3_MCF1024/production/_ext/559960290/initialization.o
 .debug_aranges
                0x00000480       0x20 build/V3_MCF1024/production/_ext/559960290/interrupts.o
 .debug_aranges
                0x000004a0       0x28 build/V3_MCF1024/production/_ext/559960290/exceptions.o
 .debug_aranges
                0x000004c8       0x60 build/V3_MCF1024/production/_ext/1639450193/driver_ADC.o
 .debug_aranges
                0x00000528       0x60 build/V3_MCF1024/production/_ext/1639450193/driver_GPIO.o
 .debug_aranges
                0x00000588       0x48 build/V3_MCF1024/production/_ext/1639450193/driver_PWM.o
 .debug_aranges
                0x000005d0       0x20 build/V3_MCF1024/production/_ext/1639450193/driver_SPI.o
 .debug_aranges
                0x000005f0       0x30 build/V3_MCF1024/production/_ext/1639450193/driver_UART.o
 .debug_aranges
                0x00000620       0x30 build/V3_MCF1024/production/_ext/1639450193/driver_CANbus.o
 .debug_aranges
                0x00000650       0x28 build/V3_MCF1024/production/_ext/1375476428/diagnostics.o
 .debug_aranges
                0x00000678       0x20 build/V3_MCF1024/production/_ext/1375476428/fastmath.o
 .debug_aranges
                0x00000698       0x60 build/V3_MCF1024/production/_ext/1375476428/tuning.o
 .debug_aranges
                0x000006f8       0x28 build/V3_MCF1024/production/_ext/1375476428/device_stat.o
 .debug_aranges
                0x00000720       0x68 build/V3_MCF1024/production/_ext/1375476428/VCU_CANdata.o
 .debug_aranges
                0x00000788       0x68 build/V3_MCF1024/production/_ext/1200941409/application_software.o
 .debug_aranges
                0x000007f0       0x20 build/V3_MCF1024/production/_ext/1200941409/fault.o
 .debug_aranges
                0x00000810       0x30 build/V3_MCF1024/production/_ext/1200941409/state_engine.o
 .debug_aranges
                0x00000840       0x20 build/V3_MCF1024/production/_ext/1360937237/main.o
 .debug_aranges
                0x00000860       0x20 /opt/microchip/xc32/v2.50/bin/bin/../../lib/gcc/pic32mx/4.8.3/../../../../pic32mx/lib/fpu64/libpic32.a(default-on-reset.o)
 .debug_aranges
                0x00000880       0x20 /opt/microchip/xc32/v2.50/bin/bin/../../lib/gcc/pic32mx/4.8.3/../../../../pic32mx/lib/fpu64/libpic32.a(default-on-bootstrap.o)
 .debug_aranges
                0x000008a0       0x20 /opt/microchip/xc32/v2.50/bin/bin/../../lib/gcc/pic32mx/4.8.3/../../../../pic32mx/lib/fpu64/libpic32.a(defaultinterrupt.o)
 .debug_aranges
                0x000008c0       0x20 /opt/microchip/xc32/v2.50/bin/bin/../../lib/gcc/pic32mx/4.8.3/../../../../pic32mx/lib/fpu64/libmfd.a(s_cos.o)
 .debug_aranges
                0x000008e0       0x20 /opt/microchip/xc32/v2.50/bin/bin/../../lib/gcc/pic32mx/4.8.3/../../../../pic32mx/lib/fpu64/libmfd.a(s_fabs.o)
 .debug_aranges
                0x00000900       0x20 /opt/microchip/xc32/v2.50/bin/bin/../../lib/gcc/pic32mx/4.8.3/../../../../pic32mx/lib/fpu64/libmfd.a(s_sin.o)
 .debug_aranges
                0x00000920       0x20 /opt/microchip/xc32/v2.50/bin/bin/../../lib/gcc/pic32mx/4.8.3/../../../../pic32mx/lib/fpu64/libmfd.a(pic32_w_sqrt.o)
 .debug_aranges
                0x00000940       0x20 /opt/microchip/xc32/v2.50/bin/bin/../../lib/gcc/pic32mx/4.8.3/../../../../pic32mx/lib/fpu64/libmfd.a(e_rem_pio2.o)
 .debug_aranges
                0x00000960       0x20 /opt/microchip/xc32/v2.50/bin/bin/../../lib/gcc/pic32mx/4.8.3/../../../../pic32mx/lib/fpu64/libmfd.a(k_cos.o)
 .debug_aranges
                0x00000980       0x20 /opt/microchip/xc32/v2.50/bin/bin/../../lib/gcc/pic32mx/4.8.3/../../../../pic32mx/lib/fpu64/libmfd.a(k_sin.o)

.debug_pubnames
 *.elf(.debug_pubnames)
 *(.debug_pubnames)

.debug_info     0x00000000    0x10396
 *.elf(.debug_info .gnu.linkonce.wi.*)
 *(.debug_info .gnu.linkonce.wi.*)
 .debug_info    0x00000000     0x12ea build/V3_MCF1024/production/_ext/1972949787/plib_adchs.o
 .debug_info    0x000012ea      0xc7d build/V3_MCF1024/production/_ext/1971181624/plib_canfd1.o
 .debug_info    0x00001f67      0x28c build/V3_MCF1024/production/_ext/894868023/plib_cdac1.o
 .debug_info    0x000021f3      0x28c build/V3_MCF1024/production/_ext/894868023/plib_cdac2.o
 .debug_info    0x0000247f      0x28c build/V3_MCF1024/production/_ext/894868023/plib_cdac3.o
 .debug_info    0x0000270b      0x3c4 build/V3_MCF1024/production/_ext/444508452/plib_clk.o
 .debug_info    0x00002acf      0x7fb build/V3_MCF1024/production/_ext/916064250/plib_eeprom.o
 .debug_info    0x000032ca     0x19c2 build/V3_MCF1024/production/_ext/894790895/plib_evic.o
 .debug_info    0x00004c8c      0x72a build/V3_MCF1024/production/_ext/894737067/plib_gpio.o
 .debug_info    0x000053b6      0xbca build/V3_MCF1024/production/_ext/1961884374/plib_mcpwm.o
 .debug_info    0x00005f80      0x73e build/V3_MCF1024/production/_ext/1340093086/plib_spi4_master.o
 .debug_info    0x000066be      0x862 build/V3_MCF1024/production/_ext/894334124/plib_uart1.o
 .debug_info    0x00006f20      0x19b build/V3_MCF1024/production/_ext/1780272356/xc32_monitor.o
 .debug_info    0x000070bb      0x4bc build/V3_MCF1024/production/_ext/559960290/initialization.o
 .debug_info    0x00007577      0x1c6 build/V3_MCF1024/production/_ext/559960290/interrupts.o
 .debug_info    0x0000773d      0x2cc build/V3_MCF1024/production/_ext/559960290/exceptions.o
 .debug_info    0x00007a09      0xfff build/V3_MCF1024/production/_ext/1639450193/driver_ADC.o
 .debug_info    0x00008a08      0x913 build/V3_MCF1024/production/_ext/1639450193/driver_GPIO.o
 .debug_info    0x0000931b      0x801 build/V3_MCF1024/production/_ext/1639450193/driver_PWM.o
 .debug_info    0x00009b1c      0x3de build/V3_MCF1024/production/_ext/1639450193/driver_SPI.o
 .debug_info    0x00009efa      0x5de build/V3_MCF1024/production/_ext/1639450193/driver_UART.o
 .debug_info    0x0000a4d8      0x6a2 build/V3_MCF1024/production/_ext/1639450193/driver_CANbus.o
 .debug_info    0x0000ab7a      0x2d6 build/V3_MCF1024/production/_ext/1375476428/diagnostics.o
 .debug_info    0x0000ae50      0x2b2 build/V3_MCF1024/production/_ext/1375476428/fastmath.o
 .debug_info    0x0000b102     0x17d7 build/V3_MCF1024/production/_ext/1375476428/tuning.o
 .debug_info    0x0000c8d9      0x2cb build/V3_MCF1024/production/_ext/1375476428/device_stat.o
 .debug_info    0x0000cba4      0x76b build/V3_MCF1024/production/_ext/1375476428/VCU_CANdata.o
 .debug_info    0x0000d30f     0x141c build/V3_MCF1024/production/_ext/1200941409/application_software.o
 .debug_info    0x0000e72b      0x1b1 build/V3_MCF1024/production/_ext/1200941409/fault.o
 .debug_info    0x0000e8dc     0x1097 build/V3_MCF1024/production/_ext/1200941409/state_engine.o
 .debug_info    0x0000f973      0x246 build/V3_MCF1024/production/_ext/1360937237/main.o
 .debug_info    0x0000fbb9       0xcd /opt/microchip/xc32/v2.50/bin/bin/../../lib/gcc/pic32mx/4.8.3/../../../../pic32mx/lib/fpu64/libpic32.a(default-on-reset.o)
 .debug_info    0x0000fc86       0xd5 /opt/microchip/xc32/v2.50/bin/bin/../../lib/gcc/pic32mx/4.8.3/../../../../pic32mx/lib/fpu64/libpic32.a(default-on-bootstrap.o)
 .debug_info    0x0000fd5b       0xe7 /opt/microchip/xc32/v2.50/bin/bin/../../lib/gcc/pic32mx/4.8.3/../../../../pic32mx/lib/fpu64/libpic32.a(defaultinterrupt.o)
 .debug_info    0x0000fe42       0xbc /opt/microchip/xc32/v2.50/bin/bin/../../lib/gcc/pic32mx/4.8.3/../../../../pic32mx/lib/fpu64/libmfd.a(s_cos.o)
 .debug_info    0x0000fefe       0xbe /opt/microchip/xc32/v2.50/bin/bin/../../lib/gcc/pic32mx/4.8.3/../../../../pic32mx/lib/fpu64/libmfd.a(s_fabs.o)
 .debug_info    0x0000ffbc       0xbc /opt/microchip/xc32/v2.50/bin/bin/../../lib/gcc/pic32mx/4.8.3/../../../../pic32mx/lib/fpu64/libmfd.a(s_sin.o)
 .debug_info    0x00010078       0xca /opt/microchip/xc32/v2.50/bin/bin/../../lib/gcc/pic32mx/4.8.3/../../../../pic32mx/lib/fpu64/libmfd.a(pic32_w_sqrt.o)
 .debug_info    0x00010142       0xce /opt/microchip/xc32/v2.50/bin/bin/../../lib/gcc/pic32mx/4.8.3/../../../../pic32mx/lib/fpu64/libmfd.a(e_rem_pio2.o)
 .debug_info    0x00010210       0xc3 /opt/microchip/xc32/v2.50/bin/bin/../../lib/gcc/pic32mx/4.8.3/../../../../pic32mx/lib/fpu64/libmfd.a(k_cos.o)
 .debug_info    0x000102d3       0xc3 /opt/microchip/xc32/v2.50/bin/bin/../../lib/gcc/pic32mx/4.8.3/../../../../pic32mx/lib/fpu64/libmfd.a(k_sin.o)

.debug_abbrev   0x00000000     0x237a
 *.elf(.debug_abbrev)
 *(.debug_abbrev)
 .debug_abbrev  0x00000000      0x15f build/V3_MCF1024/production/_ext/1972949787/plib_adchs.o
 .debug_abbrev  0x0000015f      0x1f9 build/V3_MCF1024/production/_ext/1971181624/plib_canfd1.o
 .debug_abbrev  0x00000358       0xb9 build/V3_MCF1024/production/_ext/894868023/plib_cdac1.o
 .debug_abbrev  0x00000411       0xb9 build/V3_MCF1024/production/_ext/894868023/plib_cdac2.o
 .debug_abbrev  0x000004ca       0xb9 build/V3_MCF1024/production/_ext/894868023/plib_cdac3.o
 .debug_abbrev  0x00000583       0x94 build/V3_MCF1024/production/_ext/444508452/plib_clk.o
 .debug_abbrev  0x00000617      0x17b build/V3_MCF1024/production/_ext/916064250/plib_eeprom.o
 .debug_abbrev  0x00000792      0x10b build/V3_MCF1024/production/_ext/894790895/plib_evic.o
 .debug_abbrev  0x0000089d      0x108 build/V3_MCF1024/production/_ext/894737067/plib_gpio.o
 .debug_abbrev  0x000009a5      0x1b2 build/V3_MCF1024/production/_ext/1961884374/plib_mcpwm.o
 .debug_abbrev  0x00000b57      0x12b build/V3_MCF1024/production/_ext/1340093086/plib_spi4_master.o
 .debug_abbrev  0x00000c82      0x1ae build/V3_MCF1024/production/_ext/894334124/plib_uart1.o
 .debug_abbrev  0x00000e30       0x7a build/V3_MCF1024/production/_ext/1780272356/xc32_monitor.o
 .debug_abbrev  0x00000eaa       0xd5 build/V3_MCF1024/production/_ext/559960290/initialization.o
 .debug_abbrev  0x00000f7f       0x57 build/V3_MCF1024/production/_ext/559960290/interrupts.o
 .debug_abbrev  0x00000fd6       0x6b build/V3_MCF1024/production/_ext/559960290/exceptions.o
 .debug_abbrev  0x00001041      0x1d1 build/V3_MCF1024/production/_ext/1639450193/driver_ADC.o
 .debug_abbrev  0x00001212      0x141 build/V3_MCF1024/production/_ext/1639450193/driver_GPIO.o
 .debug_abbrev  0x00001353      0x115 build/V3_MCF1024/production/_ext/1639450193/driver_PWM.o
 .debug_abbrev  0x00001468       0xde build/V3_MCF1024/production/_ext/1639450193/driver_SPI.o
 .debug_abbrev  0x00001546      0x16d build/V3_MCF1024/production/_ext/1639450193/driver_UART.o
 .debug_abbrev  0x000016b3      0x180 build/V3_MCF1024/production/_ext/1639450193/driver_CANbus.o
 .debug_abbrev  0x00001833       0xc1 build/V3_MCF1024/production/_ext/1375476428/diagnostics.o
 .debug_abbrev  0x000018f4       0xd5 build/V3_MCF1024/production/_ext/1375476428/fastmath.o
 .debug_abbrev  0x000019c9      0x1ba build/V3_MCF1024/production/_ext/1375476428/tuning.o
 .debug_abbrev  0x00001b83       0xbb build/V3_MCF1024/production/_ext/1375476428/device_stat.o
 .debug_abbrev  0x00001c3e      0x15c build/V3_MCF1024/production/_ext/1375476428/VCU_CANdata.o
 .debug_abbrev  0x00001d9a      0x20b build/V3_MCF1024/production/_ext/1200941409/application_software.o
 .debug_abbrev  0x00001fa5       0x66 build/V3_MCF1024/production/_ext/1200941409/fault.o
 .debug_abbrev  0x0000200b      0x14c build/V3_MCF1024/production/_ext/1200941409/state_engine.o
 .debug_abbrev  0x00002157       0x93 build/V3_MCF1024/production/_ext/1360937237/main.o
 .debug_abbrev  0x000021ea       0x28 /opt/microchip/xc32/v2.50/bin/bin/../../lib/gcc/pic32mx/4.8.3/../../../../pic32mx/lib/fpu64/libpic32.a(default-on-reset.o)
 .debug_abbrev  0x00002212       0x28 /opt/microchip/xc32/v2.50/bin/bin/../../lib/gcc/pic32mx/4.8.3/../../../../pic32mx/lib/fpu64/libpic32.a(default-on-bootstrap.o)
 .debug_abbrev  0x0000223a       0x28 /opt/microchip/xc32/v2.50/bin/bin/../../lib/gcc/pic32mx/4.8.3/../../../../pic32mx/lib/fpu64/libpic32.a(defaultinterrupt.o)
 .debug_abbrev  0x00002262       0x28 /opt/microchip/xc32/v2.50/bin/bin/../../lib/gcc/pic32mx/4.8.3/../../../../pic32mx/lib/fpu64/libmfd.a(s_cos.o)
 .debug_abbrev  0x0000228a       0x28 /opt/microchip/xc32/v2.50/bin/bin/../../lib/gcc/pic32mx/4.8.3/../../../../pic32mx/lib/fpu64/libmfd.a(s_fabs.o)
 .debug_abbrev  0x000022b2       0x28 /opt/microchip/xc32/v2.50/bin/bin/../../lib/gcc/pic32mx/4.8.3/../../../../pic32mx/lib/fpu64/libmfd.a(s_sin.o)
 .debug_abbrev  0x000022da       0x28 /opt/microchip/xc32/v2.50/bin/bin/../../lib/gcc/pic32mx/4.8.3/../../../../pic32mx/lib/fpu64/libmfd.a(pic32_w_sqrt.o)
 .debug_abbrev  0x00002302       0x28 /opt/microchip/xc32/v2.50/bin/bin/../../lib/gcc/pic32mx/4.8.3/../../../../pic32mx/lib/fpu64/libmfd.a(e_rem_pio2.o)
 .debug_abbrev  0x0000232a       0x28 /opt/microchip/xc32/v2.50/bin/bin/../../lib/gcc/pic32mx/4.8.3/../../../../pic32mx/lib/fpu64/libmfd.a(k_cos.o)
 .debug_abbrev  0x00002352       0x28 /opt/microchip/xc32/v2.50/bin/bin/../../lib/gcc/pic32mx/4.8.3/../../../../pic32mx/lib/fpu64/libmfd.a(k_sin.o)

.debug_line     0x00000000     0x46d8
 *.elf(.debug_line)
 *(.debug_line)
 .debug_line    0x00000000      0x282 build/V3_MCF1024/production/_ext/1972949787/plib_adchs.o
 .debug_line    0x00000282      0x307 build/V3_MCF1024/production/_ext/1971181624/plib_canfd1.o
 .debug_line    0x00000589      0x14f build/V3_MCF1024/production/_ext/894868023/plib_cdac1.o
 .debug_line    0x000006d8      0x14f build/V3_MCF1024/production/_ext/894868023/plib_cdac2.o
 .debug_line    0x00000827      0x14f build/V3_MCF1024/production/_ext/894868023/plib_cdac3.o
 .debug_line    0x00000976      0x145 build/V3_MCF1024/production/_ext/444508452/plib_clk.o
 .debug_line    0x00000abb      0x20a build/V3_MCF1024/production/_ext/916064250/plib_eeprom.o
 .debug_line    0x00000cc5      0x1f8 build/V3_MCF1024/production/_ext/894790895/plib_evic.o
 .debug_line    0x00000ebd      0x1e9 build/V3_MCF1024/production/_ext/894737067/plib_gpio.o
 .debug_line    0x000010a6      0x31e build/V3_MCF1024/production/_ext/1961884374/plib_mcpwm.o
 .debug_line    0x000013c4      0x26e build/V3_MCF1024/production/_ext/1340093086/plib_spi4_master.o
 .debug_line    0x00001632      0x2b6 build/V3_MCF1024/production/_ext/894334124/plib_uart1.o
 .debug_line    0x000018e8       0xd3 build/V3_MCF1024/production/_ext/1780272356/xc32_monitor.o
 .debug_line    0x000019bb      0x584 build/V3_MCF1024/production/_ext/559960290/initialization.o
 .debug_line    0x00001f3f       0x8b build/V3_MCF1024/production/_ext/559960290/interrupts.o
 .debug_line    0x00001fca       0x99 build/V3_MCF1024/production/_ext/559960290/exceptions.o
 .debug_line    0x00002063      0x2db build/V3_MCF1024/production/_ext/1639450193/driver_ADC.o
 .debug_line    0x0000233e      0x1ea build/V3_MCF1024/production/_ext/1639450193/driver_GPIO.o
 .debug_line    0x00002528      0x196 build/V3_MCF1024/production/_ext/1639450193/driver_PWM.o
 .debug_line    0x000026be      0x147 build/V3_MCF1024/production/_ext/1639450193/driver_SPI.o
 .debug_line    0x00002805      0x202 build/V3_MCF1024/production/_ext/1639450193/driver_UART.o
 .debug_line    0x00002a07      0x22e build/V3_MCF1024/production/_ext/1639450193/driver_CANbus.o
 .debug_line    0x00002c35      0x134 build/V3_MCF1024/production/_ext/1375476428/diagnostics.o
 .debug_line    0x00002d69       0xfe build/V3_MCF1024/production/_ext/1375476428/fastmath.o
 .debug_line    0x00002e67      0x648 build/V3_MCF1024/production/_ext/1375476428/tuning.o
 .debug_line    0x000034af      0x188 build/V3_MCF1024/production/_ext/1375476428/device_stat.o
 .debug_line    0x00003637      0x27d build/V3_MCF1024/production/_ext/1375476428/VCU_CANdata.o
 .debug_line    0x000038b4      0x374 build/V3_MCF1024/production/_ext/1200941409/application_software.o
 .debug_line    0x00003c28       0xc4 build/V3_MCF1024/production/_ext/1200941409/fault.o
 .debug_line    0x00003cec      0x29d build/V3_MCF1024/production/_ext/1200941409/state_engine.o
 .debug_line    0x00003f89      0x225 build/V3_MCF1024/production/_ext/1360937237/main.o
 .debug_line    0x000041ae       0x93 /opt/microchip/xc32/v2.50/bin/bin/../../lib/gcc/pic32mx/4.8.3/../../../../pic32mx/lib/fpu64/libpic32.a(default-on-reset.o)
 .debug_line    0x00004241       0x97 /opt/microchip/xc32/v2.50/bin/bin/../../lib/gcc/pic32mx/4.8.3/../../../../pic32mx/lib/fpu64/libpic32.a(default-on-bootstrap.o)
 .debug_line    0x000042d8       0xa5 /opt/microchip/xc32/v2.50/bin/bin/../../lib/gcc/pic32mx/4.8.3/../../../../pic32mx/lib/fpu64/libpic32.a(defaultinterrupt.o)
 .debug_line    0x0000437d       0x78 /opt/microchip/xc32/v2.50/bin/bin/../../lib/gcc/pic32mx/4.8.3/../../../../pic32mx/lib/fpu64/libmfd.a(s_cos.o)
 .debug_line    0x000043f5       0x79 /opt/microchip/xc32/v2.50/bin/bin/../../lib/gcc/pic32mx/4.8.3/../../../../pic32mx/lib/fpu64/libmfd.a(s_fabs.o)
 .debug_line    0x0000446e       0x78 /opt/microchip/xc32/v2.50/bin/bin/../../lib/gcc/pic32mx/4.8.3/../../../../pic32mx/lib/fpu64/libmfd.a(s_sin.o)
 .debug_line    0x000044e6       0x85 /opt/microchip/xc32/v2.50/bin/bin/../../lib/gcc/pic32mx/4.8.3/../../../../pic32mx/lib/fpu64/libmfd.a(pic32_w_sqrt.o)
 .debug_line    0x0000456b       0x7d /opt/microchip/xc32/v2.50/bin/bin/../../lib/gcc/pic32mx/4.8.3/../../../../pic32mx/lib/fpu64/libmfd.a(e_rem_pio2.o)
 .debug_line    0x000045e8       0x78 /opt/microchip/xc32/v2.50/bin/bin/../../lib/gcc/pic32mx/4.8.3/../../../../pic32mx/lib/fpu64/libmfd.a(k_cos.o)
 .debug_line    0x00004660       0x78 /opt/microchip/xc32/v2.50/bin/bin/../../lib/gcc/pic32mx/4.8.3/../../../../pic32mx/lib/fpu64/libmfd.a(k_sin.o)
 .debug_line    0x000046d8        0x0 /opt/microchip/xc32/v2.50/bin/bin/../../lib/gcc/pic32mx/4.8.3/../../../../pic32mx/lib/fpu64/libpic32.a(errno.o)

.debug_frame    0x00000000     0x11f4
 *.elf(.debug_frame)
 *(.debug_frame)
 .debug_frame   0x00000000       0xf0 build/V3_MCF1024/production/_ext/1972949787/plib_adchs.o
 .debug_frame   0x000000f0       0xe0 build/V3_MCF1024/production/_ext/1971181624/plib_canfd1.o
 .debug_frame   0x000001d0       0x30 build/V3_MCF1024/production/_ext/894868023/plib_cdac1.o
 .debug_frame   0x00000200       0x30 build/V3_MCF1024/production/_ext/894868023/plib_cdac2.o
 .debug_frame   0x00000230       0x30 build/V3_MCF1024/production/_ext/894868023/plib_cdac3.o
 .debug_frame   0x00000260       0x20 build/V3_MCF1024/production/_ext/444508452/plib_clk.o
 .debug_frame   0x00000280       0xe8 build/V3_MCF1024/production/_ext/916064250/plib_eeprom.o
 .debug_frame   0x00000368       0xd4 build/V3_MCF1024/production/_ext/894790895/plib_evic.o
 .debug_frame   0x0000043c       0xa0 build/V3_MCF1024/production/_ext/894737067/plib_gpio.o
 .debug_frame   0x000004dc      0x14c build/V3_MCF1024/production/_ext/1961884374/plib_mcpwm.o
 .debug_frame   0x00000628       0x88 build/V3_MCF1024/production/_ext/1340093086/plib_spi4_master.o
 .debug_frame   0x000006b0       0xfc build/V3_MCF1024/production/_ext/894334124/plib_uart1.o
 .debug_frame   0x000007ac       0x30 build/V3_MCF1024/production/_ext/1780272356/xc32_monitor.o
 .debug_frame   0x000007dc       0x2c build/V3_MCF1024/production/_ext/559960290/initialization.o
 .debug_frame   0x00000808       0x7c build/V3_MCF1024/production/_ext/559960290/interrupts.o
 .debug_frame   0x00000884       0x40 build/V3_MCF1024/production/_ext/559960290/exceptions.o
 .debug_frame   0x000008c4       0xd0 build/V3_MCF1024/production/_ext/1639450193/driver_ADC.o
 .debug_frame   0x00000994       0xb4 build/V3_MCF1024/production/_ext/1639450193/driver_GPIO.o
 .debug_frame   0x00000a48       0x70 build/V3_MCF1024/production/_ext/1639450193/driver_PWM.o
 .debug_frame   0x00000ab8       0x28 build/V3_MCF1024/production/_ext/1639450193/driver_SPI.o
 .debug_frame   0x00000ae0       0x4c build/V3_MCF1024/production/_ext/1639450193/driver_UART.o
 .debug_frame   0x00000b2c       0x58 build/V3_MCF1024/production/_ext/1639450193/driver_CANbus.o
 .debug_frame   0x00000b84       0x44 build/V3_MCF1024/production/_ext/1375476428/diagnostics.o
 .debug_frame   0x00000bc8       0x38 build/V3_MCF1024/production/_ext/1375476428/fastmath.o
 .debug_frame   0x00000c00      0x164 build/V3_MCF1024/production/_ext/1375476428/tuning.o
 .debug_frame   0x00000d64       0x48 build/V3_MCF1024/production/_ext/1375476428/device_stat.o
 .debug_frame   0x00000dac       0xfc build/V3_MCF1024/production/_ext/1375476428/VCU_CANdata.o
 .debug_frame   0x00000ea8      0x120 build/V3_MCF1024/production/_ext/1200941409/application_software.o
 .debug_frame   0x00000fc8       0x2c build/V3_MCF1024/production/_ext/1200941409/fault.o
 .debug_frame   0x00000ff4       0x6c build/V3_MCF1024/production/_ext/1200941409/state_engine.o
 .debug_frame   0x00001060       0x28 build/V3_MCF1024/production/_ext/1360937237/main.o
 .debug_frame   0x00001088       0x20 /opt/microchip/xc32/v2.50/bin/bin/../../lib/gcc/pic32mx/4.8.3/../../../../pic32mx/lib/fpu64/libpic32.a(default-on-reset.o)
 .debug_frame   0x000010a8       0x20 /opt/microchip/xc32/v2.50/bin/bin/../../lib/gcc/pic32mx/4.8.3/../../../../pic32mx/lib/fpu64/libpic32.a(default-on-bootstrap.o)
 .debug_frame   0x000010c8       0x20 /opt/microchip/xc32/v2.50/bin/bin/../../lib/gcc/pic32mx/4.8.3/../../../../pic32mx/lib/fpu64/libpic32.a(defaultinterrupt.o)
 .debug_frame   0x000010e8       0x2c /opt/microchip/xc32/v2.50/bin/bin/../../lib/gcc/pic32mx/4.8.3/../../../../pic32mx/lib/fpu64/libmfd.a(s_cos.o)
 .debug_frame   0x00001114       0x20 /opt/microchip/xc32/v2.50/bin/bin/../../lib/gcc/pic32mx/4.8.3/../../../../pic32mx/lib/fpu64/libmfd.a(s_fabs.o)
 .debug_frame   0x00001134       0x2c /opt/microchip/xc32/v2.50/bin/bin/../../lib/gcc/pic32mx/4.8.3/../../../../pic32mx/lib/fpu64/libmfd.a(s_sin.o)
 .debug_frame   0x00001160       0x2c /opt/microchip/xc32/v2.50/bin/bin/../../lib/gcc/pic32mx/4.8.3/../../../../pic32mx/lib/fpu64/libmfd.a(pic32_w_sqrt.o)
 .debug_frame   0x0000118c       0x20 /opt/microchip/xc32/v2.50/bin/bin/../../lib/gcc/pic32mx/4.8.3/../../../../pic32mx/lib/fpu64/libmfd.a(e_rem_pio2.o)
 .debug_frame   0x000011ac       0x28 /opt/microchip/xc32/v2.50/bin/bin/../../lib/gcc/pic32mx/4.8.3/../../../../pic32mx/lib/fpu64/libmfd.a(k_cos.o)
 .debug_frame   0x000011d4       0x20 /opt/microchip/xc32/v2.50/bin/bin/../../lib/gcc/pic32mx/4.8.3/../../../../pic32mx/lib/fpu64/libmfd.a(k_sin.o)

.debug_str      0x00000000      0x1b3
 *.elf(.debug_str)
 *(.debug_str)
 .debug_str     0x00000000       0x52 build/V3_MCF1024/production/_ext/1972949787/plib_adchs.o
 .debug_str     0x00000052       0x47 build/V3_MCF1024/production/_ext/1971181624/plib_canfd1.o
 .debug_str     0x00000099        0x0 build/V3_MCF1024/production/_ext/894868023/plib_cdac1.o
 .debug_str     0x00000099        0x0 build/V3_MCF1024/production/_ext/894868023/plib_cdac2.o
 .debug_str     0x00000099        0x0 build/V3_MCF1024/production/_ext/894868023/plib_cdac3.o
 .debug_str     0x00000099        0x0 build/V3_MCF1024/production/_ext/444508452/plib_clk.o
 .debug_str     0x00000099        0x7 build/V3_MCF1024/production/_ext/916064250/plib_eeprom.o
 .debug_str     0x000000a0        0x7 build/V3_MCF1024/production/_ext/894790895/plib_evic.o
 .debug_str     0x000000a7        0xa build/V3_MCF1024/production/_ext/894737067/plib_gpio.o
 .debug_str     0x000000b1       0x11 build/V3_MCF1024/production/_ext/1961884374/plib_mcpwm.o
 .debug_str     0x000000c2       0x1b build/V3_MCF1024/production/_ext/1340093086/plib_spi4_master.o
 .debug_str     0x000000dd       0x15 build/V3_MCF1024/production/_ext/894334124/plib_uart1.o
 .debug_str     0x000000f2        0x0 build/V3_MCF1024/production/_ext/1780272356/xc32_monitor.o
 .debug_str     0x000000f2        0x0 build/V3_MCF1024/production/_ext/559960290/initialization.o
 .debug_str     0x000000f2        0x0 build/V3_MCF1024/production/_ext/559960290/interrupts.o
 .debug_str     0x000000f2        0x0 build/V3_MCF1024/production/_ext/559960290/exceptions.o
 .debug_str     0x000000f2        0x9 build/V3_MCF1024/production/_ext/1639450193/driver_ADC.o
 .debug_str     0x000000fb       0x19 build/V3_MCF1024/production/_ext/1639450193/driver_GPIO.o
 .debug_str     0x00000114       0x31 build/V3_MCF1024/production/_ext/1639450193/driver_PWM.o
 .debug_str     0x00000145        0x0 build/V3_MCF1024/production/_ext/1639450193/driver_SPI.o
 .debug_str     0x00000145        0x0 build/V3_MCF1024/production/_ext/1639450193/driver_UART.o
 .debug_str     0x00000145        0x0 build/V3_MCF1024/production/_ext/1639450193/driver_CANbus.o
 .debug_str     0x00000145        0x0 build/V3_MCF1024/production/_ext/1375476428/diagnostics.o
 .debug_str     0x00000145        0x0 build/V3_MCF1024/production/_ext/1375476428/fastmath.o
 .debug_str     0x00000145       0x24 build/V3_MCF1024/production/_ext/1375476428/tuning.o
 .debug_str     0x00000169        0x0 build/V3_MCF1024/production/_ext/1375476428/device_stat.o
 .debug_str     0x00000169       0x26 build/V3_MCF1024/production/_ext/1375476428/VCU_CANdata.o
 .debug_str     0x0000018f       0x24 build/V3_MCF1024/production/_ext/1200941409/application_software.o
 .debug_str     0x000001b3        0x0 build/V3_MCF1024/production/_ext/1200941409/fault.o
 .debug_str     0x000001b3        0x0 build/V3_MCF1024/production/_ext/1200941409/state_engine.o
 .debug_str     0x000001b3        0x0 build/V3_MCF1024/production/_ext/1360937237/main.o
 .debug_str     0x000001b3        0x0 /opt/microchip/xc32/v2.50/bin/bin/../../lib/gcc/pic32mx/4.8.3/../../../../pic32mx/lib/fpu64/libpic32.a(default-on-reset.o)
 .debug_str     0x000001b3        0x0 /opt/microchip/xc32/v2.50/bin/bin/../../lib/gcc/pic32mx/4.8.3/../../../../pic32mx/lib/fpu64/libpic32.a(default-on-bootstrap.o)
 .debug_str     0x000001b3        0x0 /opt/microchip/xc32/v2.50/bin/bin/../../lib/gcc/pic32mx/4.8.3/../../../../pic32mx/lib/fpu64/libpic32.a(defaultinterrupt.o)
 .debug_str     0x000001b3        0x0 /opt/microchip/xc32/v2.50/bin/bin/../../lib/gcc/pic32mx/4.8.3/../../../../pic32mx/lib/fpu64/libmfd.a(s_cos.o)
 .debug_str     0x000001b3        0x0 /opt/microchip/xc32/v2.50/bin/bin/../../lib/gcc/pic32mx/4.8.3/../../../../pic32mx/lib/fpu64/libmfd.a(s_fabs.o)
 .debug_str     0x000001b3        0x0 /opt/microchip/xc32/v2.50/bin/bin/../../lib/gcc/pic32mx/4.8.3/../../../../pic32mx/lib/fpu64/libmfd.a(s_sin.o)
 .debug_str     0x000001b3        0x0 /opt/microchip/xc32/v2.50/bin/bin/../../lib/gcc/pic32mx/4.8.3/../../../../pic32mx/lib/fpu64/libmfd.a(pic32_w_sqrt.o)
 .debug_str     0x000001b3        0x0 /opt/microchip/xc32/v2.50/bin/bin/../../lib/gcc/pic32mx/4.8.3/../../../../pic32mx/lib/fpu64/libmfd.a(e_rem_pio2.o)
 .debug_str     0x000001b3        0x0 /opt/microchip/xc32/v2.50/bin/bin/../../lib/gcc/pic32mx/4.8.3/../../../../pic32mx/lib/fpu64/libmfd.a(k_cos.o)
 .debug_str     0x000001b3        0x0 /opt/microchip/xc32/v2.50/bin/bin/../../lib/gcc/pic32mx/4.8.3/../../../../pic32mx/lib/fpu64/libmfd.a(k_sin.o)
 .debug_str     0x000001b3        0x0 /opt/microchip/xc32/v2.50/bin/bin/../../lib/gcc/pic32mx/4.8.3/../../../../pic32mx/lib/fpu64/libpic32.a(errno.o)

.debug_loc      0x00000000     0x435e
 *.elf(.debug_loc)
 *(.debug_loc)
 .debug_loc     0x00000000      0x1dc build/V3_MCF1024/production/_ext/1972949787/plib_adchs.o
 .debug_loc     0x000001dc      0x506 build/V3_MCF1024/production/_ext/1971181624/plib_canfd1.o
 .debug_loc     0x000006e2      0x188 build/V3_MCF1024/production/_ext/916064250/plib_eeprom.o
 .debug_loc     0x0000086a       0x97 build/V3_MCF1024/production/_ext/894790895/plib_evic.o
 .debug_loc     0x00000901      0x129 build/V3_MCF1024/production/_ext/894737067/plib_gpio.o
 .debug_loc     0x00000a2a      0x18c build/V3_MCF1024/production/_ext/1961884374/plib_mcpwm.o
 .debug_loc     0x00000bb6      0x4ee build/V3_MCF1024/production/_ext/1340093086/plib_spi4_master.o
 .debug_loc     0x000010a4      0x383 build/V3_MCF1024/production/_ext/894334124/plib_uart1.o
 .debug_loc     0x00001427       0x21 build/V3_MCF1024/production/_ext/559960290/initialization.o
 .debug_loc     0x00001448      0x99c build/V3_MCF1024/production/_ext/1639450193/driver_ADC.o
 .debug_loc     0x00001de4      0x150 build/V3_MCF1024/production/_ext/1639450193/driver_GPIO.o
 .debug_loc     0x00001f34      0x16c build/V3_MCF1024/production/_ext/1639450193/driver_PWM.o
 .debug_loc     0x000020a0       0xad build/V3_MCF1024/production/_ext/1639450193/driver_CANbus.o
 .debug_loc     0x0000214d       0x81 build/V3_MCF1024/production/_ext/1375476428/diagnostics.o
 .debug_loc     0x000021ce      0x47b build/V3_MCF1024/production/_ext/1375476428/fastmath.o
 .debug_loc     0x00002649      0xbdd build/V3_MCF1024/production/_ext/1375476428/tuning.o
 .debug_loc     0x00003226      0x36e build/V3_MCF1024/production/_ext/1375476428/VCU_CANdata.o
 .debug_loc     0x00003594      0xd1f build/V3_MCF1024/production/_ext/1200941409/application_software.o
 .debug_loc     0x000042b3       0x21 build/V3_MCF1024/production/_ext/1200941409/fault.o
 .debug_loc     0x000042d4       0x8a build/V3_MCF1024/production/_ext/1200941409/state_engine.o

.debug_macinfo
 *.elf(.debug_macinfo)
 *(.debug_macinfo)

.debug_weaknames
 *.elf(.debug_weaknames)
 *(.debug_weaknames)

.debug_funcnames
 *.elf(.debug_funcnames)
 *(.debug_funcnames)

.debug_typenames
 *.elf(.debug_typenames)
 *(.debug_typenames)

.debug_varnames
 *.elf(.debug_varnames)
 *(.debug_varnames)

.debug_pubtypes
 *.elf(.debug_pubtypes)
 *(.debug_pubtypes)

.debug_ranges   0x00000000      0x728
 *.elf(.debug_ranges)
 *(.debug_ranges)
 .debug_ranges  0x00000000       0x78 build/V3_MCF1024/production/_ext/1972949787/plib_adchs.o
 .debug_ranges  0x00000078       0x70 build/V3_MCF1024/production/_ext/1971181624/plib_canfd1.o
 .debug_ranges  0x000000e8       0x18 build/V3_MCF1024/production/_ext/894868023/plib_cdac1.o
 .debug_ranges  0x00000100       0x18 build/V3_MCF1024/production/_ext/894868023/plib_cdac2.o
 .debug_ranges  0x00000118       0x18 build/V3_MCF1024/production/_ext/894868023/plib_cdac3.o
 .debug_ranges  0x00000130       0x10 build/V3_MCF1024/production/_ext/444508452/plib_clk.o
 .debug_ranges  0x00000140       0x48 build/V3_MCF1024/production/_ext/916064250/plib_eeprom.o
 .debug_ranges  0x00000188       0x58 build/V3_MCF1024/production/_ext/894790895/plib_evic.o
 .debug_ranges  0x000001e0       0x50 build/V3_MCF1024/production/_ext/894737067/plib_gpio.o
 .debug_ranges  0x00000230       0xa0 build/V3_MCF1024/production/_ext/1961884374/plib_mcpwm.o
 .debug_ranges  0x000002d0       0x38 build/V3_MCF1024/production/_ext/1340093086/plib_spi4_master.o
 .debug_ranges  0x00000308       0x70 build/V3_MCF1024/production/_ext/894334124/plib_uart1.o
 .debug_ranges  0x00000378       0x18 build/V3_MCF1024/production/_ext/1780272356/xc32_monitor.o
 .debug_ranges  0x00000390       0x10 build/V3_MCF1024/production/_ext/559960290/initialization.o
 .debug_ranges  0x000003a0       0x10 build/V3_MCF1024/production/_ext/559960290/interrupts.o
 .debug_ranges  0x000003b0       0x18 build/V3_MCF1024/production/_ext/559960290/exceptions.o
 .debug_ranges  0x000003c8       0x50 build/V3_MCF1024/production/_ext/1639450193/driver_ADC.o
 .debug_ranges  0x00000418       0x50 build/V3_MCF1024/production/_ext/1639450193/driver_GPIO.o
 .debug_ranges  0x00000468       0x38 build/V3_MCF1024/production/_ext/1639450193/driver_PWM.o
 .debug_ranges  0x000004a0       0x10 build/V3_MCF1024/production/_ext/1639450193/driver_SPI.o
 .debug_ranges  0x000004b0       0x20 build/V3_MCF1024/production/_ext/1639450193/driver_UART.o
 .debug_ranges  0x000004d0       0x20 build/V3_MCF1024/production/_ext/1639450193/driver_CANbus.o
 .debug_ranges  0x000004f0       0x18 build/V3_MCF1024/production/_ext/1375476428/diagnostics.o
 .debug_ranges  0x00000508       0x10 build/V3_MCF1024/production/_ext/1375476428/fastmath.o
 .debug_ranges  0x00000518       0x50 build/V3_MCF1024/production/_ext/1375476428/tuning.o
 .debug_ranges  0x00000568       0x18 build/V3_MCF1024/production/_ext/1375476428/device_stat.o
 .debug_ranges  0x00000580       0x58 build/V3_MCF1024/production/_ext/1375476428/VCU_CANdata.o
 .debug_ranges  0x000005d8       0x70 build/V3_MCF1024/production/_ext/1200941409/application_software.o
 .debug_ranges  0x00000648       0x10 build/V3_MCF1024/production/_ext/1200941409/fault.o
 .debug_ranges  0x00000658       0x20 build/V3_MCF1024/production/_ext/1200941409/state_engine.o
 .debug_ranges  0x00000678       0x10 build/V3_MCF1024/production/_ext/1360937237/main.o
 .debug_ranges  0x00000688       0x10 /opt/microchip/xc32/v2.50/bin/bin/../../lib/gcc/pic32mx/4.8.3/../../../../pic32mx/lib/fpu64/libpic32.a(default-on-reset.o)
 .debug_ranges  0x00000698       0x10 /opt/microchip/xc32/v2.50/bin/bin/../../lib/gcc/pic32mx/4.8.3/../../../../pic32mx/lib/fpu64/libpic32.a(default-on-bootstrap.o)
 .debug_ranges  0x000006a8       0x10 /opt/microchip/xc32/v2.50/bin/bin/../../lib/gcc/pic32mx/4.8.3/../../../../pic32mx/lib/fpu64/libpic32.a(defaultinterrupt.o)
 .debug_ranges  0x000006b8       0x10 /opt/microchip/xc32/v2.50/bin/bin/../../lib/gcc/pic32mx/4.8.3/../../../../pic32mx/lib/fpu64/libmfd.a(s_cos.o)
 .debug_ranges  0x000006c8       0x10 /opt/microchip/xc32/v2.50/bin/bin/../../lib/gcc/pic32mx/4.8.3/../../../../pic32mx/lib/fpu64/libmfd.a(s_fabs.o)
 .debug_ranges  0x000006d8       0x10 /opt/microchip/xc32/v2.50/bin/bin/../../lib/gcc/pic32mx/4.8.3/../../../../pic32mx/lib/fpu64/libmfd.a(s_sin.o)
 .debug_ranges  0x000006e8       0x10 /opt/microchip/xc32/v2.50/bin/bin/../../lib/gcc/pic32mx/4.8.3/../../../../pic32mx/lib/fpu64/libmfd.a(pic32_w_sqrt.o)
 .debug_ranges  0x000006f8       0x10 /opt/microchip/xc32/v2.50/bin/bin/../../lib/gcc/pic32mx/4.8.3/../../../../pic32mx/lib/fpu64/libmfd.a(e_rem_pio2.o)
 .debug_ranges  0x00000708       0x10 /opt/microchip/xc32/v2.50/bin/bin/../../lib/gcc/pic32mx/4.8.3/../../../../pic32mx/lib/fpu64/libmfd.a(k_cos.o)
 .debug_ranges  0x00000718       0x10 /opt/microchip/xc32/v2.50/bin/bin/../../lib/gcc/pic32mx/4.8.3/../../../../pic32mx/lib/fpu64/libmfd.a(k_sin.o)

.gnu.attributes
                0x00000000       0x10
 *(.gnu.attributes)
 .gnu.attributes
                0x00000000       0x10 build/V3_MCF1024/production/_ext/1972949787/plib_adchs.o
 .gnu.attributes
                0x00000010       0x10 build/V3_MCF1024/production/_ext/1971181624/plib_canfd1.o
 .gnu.attributes
                0x00000020       0x10 build/V3_MCF1024/production/_ext/894868023/plib_cdac1.o
 .gnu.attributes
                0x00000030       0x10 build/V3_MCF1024/production/_ext/894868023/plib_cdac2.o
 .gnu.attributes
                0x00000040       0x10 build/V3_MCF1024/production/_ext/894868023/plib_cdac3.o
 .gnu.attributes
                0x00000050       0x10 build/V3_MCF1024/production/_ext/444508452/plib_clk.o
 .gnu.attributes
                0x00000060       0x10 build/V3_MCF1024/production/_ext/916064250/plib_eeprom.o
 .gnu.attributes
                0x00000070       0x10 build/V3_MCF1024/production/_ext/894790895/plib_evic.o
 .gnu.attributes
                0x00000080       0x10 build/V3_MCF1024/production/_ext/894737067/plib_gpio.o
 .gnu.attributes
                0x00000090       0x10 build/V3_MCF1024/production/_ext/1961884374/plib_mcpwm.o
 .gnu.attributes
                0x000000a0       0x10 build/V3_MCF1024/production/_ext/1340093086/plib_spi4_master.o
 .gnu.attributes
                0x000000b0       0x10 build/V3_MCF1024/production/_ext/894334124/plib_uart1.o
 .gnu.attributes
                0x000000c0       0x10 build/V3_MCF1024/production/_ext/1780272356/xc32_monitor.o
 .gnu.attributes
                0x000000d0       0x10 build/V3_MCF1024/production/_ext/559960290/initialization.o
 .gnu.attributes
                0x000000e0       0x10 build/V3_MCF1024/production/_ext/559960290/interrupts.o
 .gnu.attributes
                0x000000f0       0x10 build/V3_MCF1024/production/_ext/559960290/exceptions.o
 .gnu.attributes
                0x00000100       0x10 build/V3_MCF1024/production/_ext/1639450193/driver_ADC.o
 .gnu.attributes
                0x00000110       0x10 build/V3_MCF1024/production/_ext/1639450193/driver_GPIO.o
 .gnu.attributes
                0x00000120       0x10 build/V3_MCF1024/production/_ext/1639450193/driver_PWM.o
 .gnu.attributes
                0x00000130       0x10 build/V3_MCF1024/production/_ext/1639450193/driver_SPI.o
 .gnu.attributes
                0x00000140       0x10 build/V3_MCF1024/production/_ext/1639450193/driver_UART.o
 .gnu.attributes
                0x00000150       0x10 build/V3_MCF1024/production/_ext/1639450193/driver_CANbus.o
 .gnu.attributes
                0x00000160       0x10 build/V3_MCF1024/production/_ext/1375476428/diagnostics.o
 .gnu.attributes
                0x00000170       0x10 build/V3_MCF1024/production/_ext/1375476428/fastmath.o
 .gnu.attributes
                0x00000180       0x10 build/V3_MCF1024/production/_ext/1375476428/tuning.o
 .gnu.attributes
                0x00000190       0x10 build/V3_MCF1024/production/_ext/1375476428/device_stat.o
 .gnu.attributes
                0x000001a0       0x10 build/V3_MCF1024/production/_ext/1375476428/VCU_CANdata.o
 .gnu.attributes
                0x000001b0       0x10 build/V3_MCF1024/production/_ext/1200941409/application_software.o
 .gnu.attributes
                0x000001c0       0x10 build/V3_MCF1024/production/_ext/1200941409/fault.o
 .gnu.attributes
                0x000001d0       0x10 build/V3_MCF1024/production/_ext/1200941409/state_engine.o
 .gnu.attributes
                0x000001e0       0x10 build/V3_MCF1024/production/_ext/1360937237/main.o
 .gnu.attributes
                0x000001f0       0x10 /opt/microchip/xc32/v2.50/bin/bin/../../lib/gcc/pic32mx/4.8.3/../../../../pic32mx/lib/fpu64/libpic32.a(default-on-reset.o)
 .gnu.attributes
                0x00000200       0x10 /opt/microchip/xc32/v2.50/bin/bin/../../lib/gcc/pic32mx/4.8.3/../../../../pic32mx/lib/fpu64/libpic32.a(default-on-bootstrap.o)
 .gnu.attributes
                0x00000210       0x10 /opt/microchip/xc32/v2.50/bin/bin/../../lib/gcc/pic32mx/4.8.3/../../../../pic32mx/lib/fpu64/libpic32.a(defaultinterrupt.o)
 .gnu.attributes
                0x00000220       0x10 /opt/microchip/xc32/v2.50/bin/bin/../../lib/gcc/pic32mx/4.8.3/../../../../pic32mx/lib/fpu64/libmfd.a(s_cos.o)
 .gnu.attributes
                0x00000230       0x10 /opt/microchip/xc32/v2.50/bin/bin/../../lib/gcc/pic32mx/4.8.3/../../../../pic32mx/lib/fpu64/libmfd.a(s_fabs.o)
 .gnu.attributes
                0x00000240       0x10 /opt/microchip/xc32/v2.50/bin/bin/../../lib/gcc/pic32mx/4.8.3/../../../../pic32mx/lib/fpu64/libmfd.a(s_sin.o)
 .gnu.attributes
                0x00000250       0x10 /opt/microchip/xc32/v2.50/bin/bin/../../lib/gcc/pic32mx/4.8.3/../../../../pic32mx/lib/fpu64/libmfd.a(pic32_w_sqrt.o)
 .gnu.attributes
                0x00000260       0x10 /opt/microchip/xc32/v2.50/bin/bin/../../lib/gcc/pic32mx/4.8.3/../../../../pic32mx/lib/fpu64/libmfd.a(e_rem_pio2.o)
 .gnu.attributes
                0x00000270       0x10 /opt/microchip/xc32/v2.50/bin/bin/../../lib/gcc/pic32mx/4.8.3/../../../../pic32mx/lib/fpu64/libmfd.a(k_cos.o)
 .gnu.attributes
                0x00000280       0x10 /opt/microchip/xc32/v2.50/bin/bin/../../lib/gcc/pic32mx/4.8.3/../../../../pic32mx/lib/fpu64/libmfd.a(k_sin.o)
 .gnu.attributes
                0x00000290       0x10 /opt/microchip/xc32/v2.50/bin/bin/../../lib/gcc/pic32mx/4.8.3/../../../../pic32mx/lib/fpu64/libpic32.a(errno.o)
                0x00000200                _min_heap_size = 0x200
LOAD /tmp/ccAtE9dX.o
LOAD /tmp/cclxkI3W.o
LOAD /tmp/ccmO7AhX.o
LOAD /opt/microchip/xc32/v2.50/bin/bin/../../lib/gcc/pic32mx/4.8.3/../../../../pic32mx/lib/./proc/32MK1024MCM064/default_isr_vectors.o
LOAD /opt/microchip/xc32/v2.50/bin/bin/../../lib/gcc/pic32mx/4.8.3/../../../../pic32mx/lib/fpu64/pic32_software_reset.o
LOAD /opt/microchip/xc32/v2.50/bin/bin/../../lib/gcc/pic32mx/4.8.3/fpu64/libgcc.a
START GROUP
LOAD /opt/microchip/xc32/v2.50/bin/bin/../../lib/gcc/pic32mx/4.8.3/../../../../pic32mx/lib/fpu64/libpic32.a
LOAD /opt/microchip/xc32/v2.50/bin/bin/../../lib/gcc/pic32mx/4.8.3/../../../../pic32mx/lib/fpu64/libdebug.a
LOAD /opt/microchip/xc32/v2.50/bin/bin/../../lib/gcc/pic32mx/4.8.3/../../../../pic32mx/lib/fpu64/libpic32.a
LOAD /opt/microchip/xc32/v2.50/bin/bin/../../lib/gcc/pic32mx/4.8.3/../../../../pic32mx/lib/fpu64/libc.a
LOAD /opt/microchip/xc32/v2.50/bin/bin/../../lib/gcc/pic32mx/4.8.3/../../../../pic32mx/lib/fpu64/libc.a
LOAD /opt/microchip/xc32/v2.50/bin/bin/../../lib/gcc/pic32mx/4.8.3/../../../../pic32mx/lib/fpu64/libmfd.a
LOAD /opt/microchip/xc32/v2.50/bin/bin/../../lib/gcc/pic32mx/4.8.3/../../../../pic32mx/lib/fpu64/libm.a
LOAD /opt/microchip/xc32/v2.50/bin/bin/../../lib/gcc/pic32mx/4.8.3/../../../../pic32mx/lib/fpu64/libe.a
LOAD /opt/microchip/xc32/v2.50/bin/bin/../../lib/gcc/pic32mx/4.8.3/../../../../pic32mx/lib/fpu64/libdspr2.a
LOAD /opt/microchip/xc32/v2.50/bin/bin/../../lib/gcc/pic32mx/4.8.3/../../../../pic32mx/lib/fpu64/libdsp.a
LOAD /opt/microchip/xc32/v2.50/bin/bin/../../lib/gcc/pic32mx/4.8.3/fpu64/libgcc.a
LOAD /opt/microchip/xc32/v2.50/bin/bin/../../lib/gcc/pic32mx/4.8.3/../../../../pic32mx/lib/fpu64/libpic32.a
END GROUP
LOAD /opt/microchip/xc32/v2.50/bin/bin/../../lib/gcc/pic32mx/4.8.3/fpu64/libgcc.a
OUTPUT(dist/V3_MCF1024/production/BKV6_SCV1.0_31May_itest.X.production.elf elf32-tradlittlemips)
LOAD stack
LOAD data_init

.reginfo        0x00000000       0x18
 .reginfo       0x00000000       0x18 /opt/microchip/xc32/v2.50/bin/bin/../../lib/gcc/pic32mx/4.8.3/../../../../pic32mx/lib/fpu64/debug-exception-return.o

.stack          0x80000728      0x400
 .stack         0x80000728      0x400 stack

.__vector_offset_BF8105B8_data
                0xbf8105b8       0xfc
 .__vector_offset_BF8105B8_data
                0xbf8105b8       0xfc /opt/microchip/xc32/v2.50/bin/bin/../../lib/gcc/pic32mx/4.8.3/../../../../pic32mx/lib/./proc/32MK1024MCM064/vector_offset_init.o

.__vector_offset_BF8106B8_data
                0xbf8106b8       0xa0
 .__vector_offset_BF8106B8_data
                0xbf8106b8       0xa0 /opt/microchip/xc32/v2.50/bin/bin/../../lib/gcc/pic32mx/4.8.3/../../../../pic32mx/lib/./proc/32MK1024MCM064/vector_offset_init.o

.__vector_offset_BF810848_data
                0xbf810848       0x94
 .__vector_offset_BF810848_data
                0xbf810848       0x94 /opt/microchip/xc32/v2.50/bin/bin/../../lib/gcc/pic32mx/4.8.3/../../../../pic32mx/lib/./proc/32MK1024MCM064/vector_offset_init.o

.__vector_offset_BF8107D0_data
                0xbf8107d0       0x74
 .__vector_offset_BF8107D0_data
                0xbf8107d0       0x74 /opt/microchip/xc32/v2.50/bin/bin/../../lib/gcc/pic32mx/4.8.3/../../../../pic32mx/lib/./proc/32MK1024MCM064/vector_offset_init.o

.__vector_offset_BF810540_data
                0xbf810540       0x70
 .__vector_offset_BF810540_data
                0xbf810540       0x70 /opt/microchip/xc32/v2.50/bin/bin/../../lib/gcc/pic32mx/4.8.3/../../../../pic32mx/lib/./proc/32MK1024MCM064/vector_offset_init.o

.__vector_offset_BF81079C_data
                0xbf81079c       0x30
 .__vector_offset_BF81079C_data
                0xbf81079c       0x30 /opt/microchip/xc32/v2.50/bin/bin/../../lib/gcc/pic32mx/4.8.3/../../../../pic32mx/lib/./proc/32MK1024MCM064/vector_offset_init.o

.__vector_offset_BF81076C_data
                0xbf81076c       0x24
 .__vector_offset_BF81076C_data
                0xbf81076c       0x24 /opt/microchip/xc32/v2.50/bin/bin/../../lib/gcc/pic32mx/4.8.3/../../../../pic32mx/lib/./proc/32MK1024MCM064/vector_offset_init.o

.__vector_offset_BF810910_data
                0xbf810910       0x10
 .__vector_offset_BF810910_data
                0xbf810910       0x10 /opt/microchip/xc32/v2.50/bin/bin/../../lib/gcc/pic32mx/4.8.3/../../../../pic32mx/lib/./proc/32MK1024MCM064/vector_offset_init.o

.__vector_offset_BF810938_data
                0xbf810938        0x8
 .__vector_offset_BF810938_data
                0xbf810938        0x8 /opt/microchip/xc32/v2.50/bin/bin/../../lib/gcc/pic32mx/4.8.3/../../../../pic32mx/lib/./proc/32MK1024MCM064/vector_offset_init.o

.COHERENTBSS$   0xa00003a0      0x100
 .COHERENTBSS$  0xa00003a0      0x100 build/V3_MCF1024/production/_ext/1971181624/plib_canfd1.o

.bss            0x800004a0       0x28
 .bss           0x800004a0       0x28 build/V3_MCF1024/production/_ext/1375476428/tuning.o

.data           0x800004c8       0x1c
 .data          0x800004c8       0x1c build/V3_MCF1024/production/_ext/1375476428/diagnostics.o

.bss            0x800004e4       0x14
 .bss           0x800004e4       0x14 build/V3_MCF1024/production/_ext/1639450193/driver_UART.o

.data           0x800004f8        0xc
 .data          0x800004f8        0xc build/V3_MCF1024/production/_ext/1375476428/device_stat.o

.bss.errno      0x80000504        0x4
 .bss.errno     0x80000504        0x4 /opt/microchip/xc32/v2.50/bin/bin/../../lib/gcc/pic32mx/4.8.3/../../../../pic32mx/lib/fpu64/libpic32.a(errno.o)
                0x80000504                errno

._debug_exception
                0xbfc00480       0x2c
 ._debug_exception
                0xbfc00480       0x2c /opt/microchip/xc32/v2.50/bin/bin/../../lib/gcc/pic32mx/4.8.3/../../../../pic32mx/lib/fpu64/debug-exception-return.o
                0xbfc00480                __DbgExecReturn

.dinit          0x9d000250      0x6c0
 .dinit         0x9d000250      0x6c0 data_init

.text.fill_empty_EEPROM
                0x9d000910      0x65c
 .text.fill_empty_EEPROM
                0x9d000910      0x65c build/V3_MCF1024/production/_ext/1375476428/tuning.o
                0x9d000910                fill_empty_EEPROM

.text.send_currently_used_values
                0x9d000f6c      0x554
 .text.send_currently_used_values
                0x9d000f6c      0x554 build/V3_MCF1024/production/_ext/1375476428/tuning.o
                0x9d000f6c                send_currently_used_values

.text.current_ref_generator
                0x9d0014c0      0x4f8
 .text.current_ref_generator
                0x9d0014c0      0x4f8 build/V3_MCF1024/production/_ext/1200941409/application_software.o
                0x9d0014c0                current_ref_generator

.text.tune_vehicle_veriables
                0x9d0019b8      0x488
 .text.tune_vehicle_veriables
                0x9d0019b8      0x488 build/V3_MCF1024/production/_ext/1375476428/tuning.o
                0x9d0019b8                tune_vehicle_veriables

.text.__ieee754_rem_pio2
                0x9d001e40      0x344
 .text.__ieee754_rem_pio2
                0x9d001e40      0x344 /opt/microchip/xc32/v2.50/bin/bin/../../lib/gcc/pic32mx/4.8.3/../../../../pic32mx/lib/fpu64/libmfd.a(e_rem_pio2.o)
                0x9d001e40                __ieee754_rem_pio2

.text.tune_powertrain_variables
                0x9d002184      0x314
 .text.tune_powertrain_variables
                0x9d002184      0x314 build/V3_MCF1024/production/_ext/1375476428/tuning.o
                0x9d002184                tune_powertrain_variables

.text.slow_routines
                0x9d002498      0x30c
 .text.slow_routines
                0x9d002498      0x30c build/V3_MCF1024/production/_ext/1200941409/state_engine.o
                0x9d002498                slow_routines

.text.tune_state_variables
                0x9d0027a4      0x2e8
 .text.tune_state_variables
                0x9d0027a4      0x2e8 build/V3_MCF1024/production/_ext/1375476428/tuning.o
                0x9d0027a4                tune_state_variables

.text.ADCHS_Initialize
                0x9d002a8c      0x2e0
 .text.ADCHS_Initialize
                0x9d002a8c      0x2e0 build/V3_MCF1024/production/_ext/1972949787/plib_adchs.o
                0x9d002a8c                ADCHS_Initialize

.text.tune_faults
                0x9d002d6c      0x2cc
 .text.tune_faults
                0x9d002d6c      0x2cc build/V3_MCF1024/production/_ext/1375476428/tuning.o
                0x9d002d6c                tune_faults

.text.recieve_command_uart
                0x9d003038      0x260
 .text.recieve_command_uart
                0x9d003038      0x260 build/V3_MCF1024/production/_ext/1639450193/driver_UART.o
                0x9d003038                recieve_command_uart

.text.state_init
                0x9d003298      0x250
 .text.state_init
                0x9d003298      0x250 build/V3_MCF1024/production/_ext/1200941409/state_engine.o
                0x9d003298                state_init

.text.slow_measurement_input
                0x9d0034e8      0x240
 .text.slow_measurement_input
                0x9d0034e8      0x240 build/V3_MCF1024/production/_ext/1639450193/driver_ADC.o
                0x9d0034e8                slow_measurement_input

.text.drive_init
                0x9d003728      0x240
 .text.drive_init
                0x9d003728      0x240 build/V3_MCF1024/production/_ext/1200941409/application_software.o
                0x9d003728                drive_init

.text.angle_finder
                0x9d003968      0x218
 .text.angle_finder
                0x9d003968      0x218 build/V3_MCF1024/production/_ext/1200941409/application_software.o
                0x9d003968                angle_finder

.text.slow_measurement_T
                0x9d003b80      0x210
 .text.slow_measurement_T
                0x9d003b80      0x210 build/V3_MCF1024/production/_ext/1639450193/driver_ADC.o
                0x9d003b80                slow_measurement_T

.text.find_ang  0x9d003d90      0x210
 .text.find_ang
                0x9d003d90      0x210 build/V3_MCF1024/production/_ext/1375476428/fastmath.o
                0x9d003d90                find_ang

.text.fault_limits_update
                0x9d003fa0      0x1d8
 .text.fault_limits_update
                0x9d003fa0      0x1d8 build/V3_MCF1024/production/_ext/1639450193/driver_ADC.o
                0x9d003fa0                fault_limits_update

.text.drive_condition
                0x9d004178      0x1d8
 .text.drive_condition
                0x9d004178      0x1d8 build/V3_MCF1024/production/_ext/1200941409/application_software.o
                0x9d004178                drive_condition

.text.fast_measurement_RP
                0x9d004350      0x1b8
 .text.fast_measurement_RP
                0x9d004350      0x1b8 build/V3_MCF1024/production/_ext/1639450193/driver_ADC.o
                0x9d004350                fast_measurement_RP

.text.PWM_PRI_Handler
                0x9d004508      0x1a0
 .text.PWM_PRI_Handler
                0x9d004508      0x1a0 build/V3_MCF1024/production/_ext/559960290/interrupts.o
                0x9d004508                PWM_PRI_Handler

.text.MCPWM_Initialize
                0x9d0046a8      0x18c
 .text.MCPWM_Initialize
                0x9d0046a8      0x18c build/V3_MCF1024/production/_ext/1961884374/plib_mcpwm.o
                0x9d0046a8                MCPWM_Initialize

.text.fast_routines
                0x9d000000      0x178
 .text.fast_routines
                0x9d000000      0x178 build/V3_MCF1024/production/_ext/1200941409/state_engine.o
                0x9d000000                fast_routines

.text.fast_measurement_VI
                0x9d004834      0x14c
 .text.fast_measurement_VI
                0x9d004834      0x14c build/V3_MCF1024/production/_ext/1639450193/driver_ADC.o
                0x9d004834                fast_measurement_VI

.text.current_ref_hold
                0x9d004980      0x130
 .text.current_ref_hold
                0x9d004980      0x130 build/V3_MCF1024/production/_ext/1200941409/application_software.o
                0x9d004980                current_ref_hold

.text.CAN1_MessageReceive
                0x9d004ab0      0x12c
 .text.CAN1_MessageReceive
                0x9d004ab0      0x12c build/V3_MCF1024/production/_ext/1971181624/plib_canfd1.o
                0x9d004ab0                CAN1_MessageReceive

.text.update_EEPROM_values
                0x9d004bdc      0x12c
 .text.update_EEPROM_values
                0x9d004bdc      0x12c build/V3_MCF1024/production/_ext/1375476428/tuning.o
                0x9d004bdc                update_EEPROM_values

.text.CAN1_MessageTransmit
                0x9d004d08      0x124
 .text.CAN1_MessageTransmit
                0x9d004d08      0x124 build/V3_MCF1024/production/_ext/1971181624/plib_canfd1.o
                0x9d004d08                CAN1_MessageTransmit

.text.__kernel_cos
                0x9d004e2c      0x120
 .text.__kernel_cos
                0x9d004e2c      0x120 /opt/microchip/xc32/v2.50/bin/bin/../../lib/gcc/pic32mx/4.8.3/../../../../pic32mx/lib/fpu64/libmfd.a(k_cos.o)
                0x9d004e2c                __kernel_cos

.text.send_A2data
                0x9d004f4c      0x11c
 .text.send_A2data
                0x9d004f4c      0x11c build/V3_MCF1024/production/_ext/1375476428/VCU_CANdata.o
                0x9d004f4c                send_A2data

.text._cosx     0x9d005068      0x118
 .text._cosx    0x9d005068      0x118 /opt/microchip/xc32/v2.50/bin/bin/../../lib/gcc/pic32mx/4.8.3/../../../../pic32mx/lib/fpu64/libmfd.a(s_cos.o)
                0x9d005068                _cosx

.text._sinx     0x9d005180      0x118
 .text._sinx    0x9d005180      0x118 /opt/microchip/xc32/v2.50/bin/bin/../../lib/gcc/pic32mx/4.8.3/../../../../pic32mx/lib/fpu64/libmfd.a(s_sin.o)
                0x9d005180                _sinx

.text.CAN1_Initialize
                0x9d005298      0x110
 .text.CAN1_Initialize
                0x9d005298      0x110 build/V3_MCF1024/production/_ext/1971181624/plib_canfd1.o
                0x9d005298                CAN1_Initialize

.text.GPIO_Vmode
                0x9d0053a8      0x110
 .text.GPIO_Vmode
                0x9d0053a8      0x110 build/V3_MCF1024/production/_ext/1639450193/driver_GPIO.o
                0x9d0053a8                GPIO_Vmode

.text.GPIO_Initialize
                0x9d0054b8      0x108
 .text.GPIO_Initialize
                0x9d0054b8      0x108 build/V3_MCF1024/production/_ext/894737067/plib_gpio.o
                0x9d0054b8                GPIO_Initialize

.text.EEPROM_Initialize
                0x9d0055c0       0xfc
 .text.EEPROM_Initialize
                0x9d0055c0       0xfc build/V3_MCF1024/production/_ext/916064250/plib_eeprom.o
                0x9d0055c0                EEPROM_Initialize

.text.torque_rpm_calculation
                0x9d0056bc       0xf0
 .text.torque_rpm_calculation
                0x9d0056bc       0xf0 build/V3_MCF1024/production/_ext/1200941409/application_software.o
                0x9d0056bc                torque_rpm_calculation

.text.CAN_Vmode
                0x9d0057ac       0xe8
 .text.CAN_Vmode
                0x9d0057ac       0xe8 build/V3_MCF1024/production/_ext/1375476428/VCU_CANdata.o
                0x9d0057ac                CAN_Vmode

.text.send_A4data
                0x9d005894       0xe4
 .text.send_A4data
                0x9d005894       0xe4 build/V3_MCF1024/production/_ext/1375476428/VCU_CANdata.o
                0x9d005894                send_A4data

.rodata         0x9d005978      0x1c0
 .rodata        0x9d005978       0xe0 build/V3_MCF1024/production/_ext/1639450193/driver_ADC.o
 .rodata        0x9d005a58       0xe0 build/V3_MCF1024/production/_ext/1200941409/application_software.o

.text.general_exception
                0x9d005b38       0xdc
 .text.general_exception
                0x9d005b38       0xdc /opt/microchip/xc32/v2.50/bin/bin/../../lib/gcc/pic32mx/4.8.3/../../../../pic32mx/lib/fpu64/libpic32.a(general-exception.o)
                0x9d005b38                _general_exception_context

.text.A1_action
                0x9d005c14       0xd8
 .text.A1_action
                0x9d005c14       0xd8 build/V3_MCF1024/production/_ext/1375476428/VCU_CANdata.o
                0x9d005c14                A1_action

.rodata         0x9d005cf0       0xc8
 .rodata        0x9d005cf0       0xc8 /opt/microchip/xc32/v2.50/bin/bin/../../lib/gcc/pic32mx/4.8.3/../../../../pic32mx/lib/fpu64/libmfd.a(e_rem_pio2.o)

.text.CANbus_read
                0x9d005db8       0xc4
 .text.CANbus_read
                0x9d005db8       0xc4 build/V3_MCF1024/production/_ext/1639450193/driver_CANbus.o
                0x9d005db8                CANbus_read

.text.__kernel_sin
                0x9d005e7c       0xb8
 .text.__kernel_sin
                0x9d005e7c       0xb8 /opt/microchip/xc32/v2.50/bin/bin/../../lib/gcc/pic32mx/4.8.3/../../../../pic32mx/lib/fpu64/libmfd.a(k_sin.o)
                0x9d005e7c                __kernel_sin

.text.CLK_Initialize
                0x9d005f34       0xb4
 .text.CLK_Initialize
                0x9d005f34       0xb4 build/V3_MCF1024/production/_ext/444508452/plib_clk.o
                0x9d005f34                CLK_Initialize

.text.SYS_Initialize
                0x9d005fe8       0xb4
 .text.SYS_Initialize
                0x9d005fe8       0xb4 build/V3_MCF1024/production/_ext/559960290/initialization.o
                0x9d005fe8                SYS_Initialize

.text.fill_diag_data
                0x9d00609c       0xb0
 .text.fill_diag_data
                0x9d00609c       0xb0 build/V3_MCF1024/production/_ext/1375476428/diagnostics.o
                0x9d00609c                fill_diag_data

.text.tune_command
                0x9d00614c       0xa8
 .text.tune_command
                0x9d00614c       0xa8 build/V3_MCF1024/production/_ext/1375476428/tuning.o
                0x9d00614c                tune_command

.text.RED_LED_blink
                0x9d0061f4       0xa0
 .text.RED_LED_blink
                0x9d0061f4       0xa0 build/V3_MCF1024/production/_ext/1639450193/driver_GPIO.o
                0x9d0061f4                RED_LED_blink

.text.fast_fault_check
                0x9d006294       0x9c
 .text.fast_fault_check
                0x9d006294       0x9c build/V3_MCF1024/production/_ext/1639450193/driver_ADC.o
                0x9d006294                fast_fault_check

.text.EEPROM_WordRead
                0x9d006330       0x90
 .text.EEPROM_WordRead
                0x9d006330       0x90 build/V3_MCF1024/production/_ext/916064250/plib_eeprom.o
                0x9d006330                EEPROM_WordRead

.text.PWM_override_OFF
                0x9d0063c0       0x84
 .text.PWM_override_OFF
                0x9d0063c0       0x84 build/V3_MCF1024/production/_ext/1639450193/driver_PWM.o
                0x9d0063c0                PWM_override_OFF

.text           0x9d006444       0x84
 .text          0x9d006444       0x84 /opt/microchip/xc32/v2.50/bin/bin/../../lib/gcc/pic32mx/4.8.3/../../../../pic32mx/lib/fpu64/libpic32.a(pic32_data_init.o)
                0x9d006444                __pic32_data_init

.text.EEPROM_WordWrite
                0x9d0064c8       0x7c
 .text.EEPROM_WordWrite
                0x9d0064c8       0x7c build/V3_MCF1024/production/_ext/916064250/plib_eeprom.o
                0x9d0064c8                EEPROM_WordWrite

.text.SPI4_Initialize
                0x9d006544       0x7c
 .text.SPI4_Initialize
                0x9d006544       0x7c build/V3_MCF1024/production/_ext/1340093086/plib_spi4_master.o
                0x9d006544                SPI4_Initialize

.text.ADC_calib
                0x9d0065c0       0x78
 .text.ADC_calib
                0x9d0065c0       0x78 build/V3_MCF1024/production/_ext/1639450193/driver_ADC.o
                0x9d0065c0                ADC_calib

.rodata         0x9d000190       0x70
 .rodata        0x9d000190       0x70 build/V3_MCF1024/production/_ext/1375476428/tuning.o

.text.fill_data_for_VCU
                0x9d006638       0x6c
 .text.fill_data_for_VCU
                0x9d006638       0x6c build/V3_MCF1024/production/_ext/1375476428/VCU_CANdata.o
                0x9d006638                fill_data_for_VCU

.rodata         0x9d0066a8       0x68
 .rodata        0x9d0066a8       0x68 build/V3_MCF1024/production/_ext/1200941409/state_engine.o

.text.EEPROM_WriteExecute
                0x9d006710       0x64
 .text.EEPROM_WriteExecute
                0x9d006710       0x64 build/V3_MCF1024/production/_ext/916064250/plib_eeprom.o

.text.slow_fault_check
                0x9d006774       0x64
 .text.slow_fault_check
                0x9d006774       0x64 build/V3_MCF1024/production/_ext/1639450193/driver_ADC.o
                0x9d006774                slow_fault_check

.text.PWM_PRI_InterruptHandler
                0x9d0067d8       0x5c
 .text.PWM_PRI_InterruptHandler
                0x9d0067d8       0x5c build/V3_MCF1024/production/_ext/1961884374/plib_mcpwm.o
                0x9d0067d8                PWM_PRI_InterruptHandler

.text.system_state_indicator
                0x9d006834       0x5c
 .text.system_state_indicator
                0x9d006834       0x5c build/V3_MCF1024/production/_ext/1639450193/driver_GPIO.o
                0x9d006834                system_state_indicator

.text.DEVSN_send
                0x9d006890       0x5c
 .text.DEVSN_send
                0x9d006890       0x5c build/V3_MCF1024/production/_ext/1375476428/device_stat.o
                0x9d006890                DEVSN_send

.text.measurement_constants_update
                0x9d0068ec       0x58
 .text.measurement_constants_update
                0x9d0068ec       0x58 build/V3_MCF1024/production/_ext/1639450193/driver_ADC.o
                0x9d0068ec                measurement_constants_update

.text.PWM_init  0x9d006944       0x58
 .text.PWM_init
                0x9d006944       0x58 build/V3_MCF1024/production/_ext/1639450193/driver_PWM.o
                0x9d006944                PWM_init

.text.duty_cal_update
                0x9d00699c       0x54
 .text.duty_cal_update
                0x9d00699c       0x54 build/V3_MCF1024/production/_ext/1639450193/driver_PWM.o
                0x9d00699c                duty_cal_update

.text.main      0x9d0069f0       0x54
 .text.main     0x9d0069f0       0x54 build/V3_MCF1024/production/_ext/1360937237/main.o
                0x9d0069f0                main

.text.main_entry
                0x9d006a44       0x54
 .text.main_entry
                0x9d006a44       0x54 /tmp/ccAtE9dX.o
                0x9d006a78                __crt0_exit

.rodata         0x9d006a98       0x50
 .rodata        0x9d006a98       0x50 build/V3_MCF1024/production/_ext/1375476428/fastmath.o

.text.EVIC_Initialize
                0x9d006ae8       0x48
 .text.EVIC_Initialize
                0x9d006ae8       0x48 build/V3_MCF1024/production/_ext/894790895/plib_evic.o
                0x9d006ae8                EVIC_Initialize

.rodata         0x9d006b30       0x48
 .rodata        0x9d006b30       0x48 /opt/microchip/xc32/v2.50/bin/bin/../../lib/gcc/pic32mx/4.8.3/../../../../pic32mx/lib/fpu64/libmfd.a(k_cos.o)

.text           0x9d006b78       0x44
 .text          0x9d006b78       0x44 /opt/microchip/xc32/v2.50/bin/bin/../../lib/gcc/pic32mx/4.8.3/../../../../pic32mx/lib/fpu64/pic32_software_reset.o
                0x9d006b78                __pic32_software_reset

.text.send_byte_uart
                0x9d006bbc       0x40
 .text.send_byte_uart
                0x9d006bbc       0x40 build/V3_MCF1024/production/_ext/1639450193/driver_UART.o
                0x9d006bbc                send_byte_uart

.text.CDAC1_Initialize
                0x9d006bfc       0x38
 .text.CDAC1_Initialize
                0x9d006bfc       0x38 build/V3_MCF1024/production/_ext/894868023/plib_cdac1.o
                0x9d006bfc                CDAC1_Initialize

.text.CDAC2_Initialize
                0x9d006c34       0x38
 .text.CDAC2_Initialize
                0x9d006c34       0x38 build/V3_MCF1024/production/_ext/894868023/plib_cdac2.o
                0x9d006c34                CDAC2_Initialize

.text.CDAC3_Initialize
                0x9d006c6c       0x38
 .text.CDAC3_Initialize
                0x9d006c6c       0x38 build/V3_MCF1024/production/_ext/894868023/plib_cdac3.o
                0x9d006c6c                CDAC3_Initialize

.text.UART1_Initialize
                0x9d006ca4       0x38
 .text.UART1_Initialize
                0x9d006ca4       0x38 build/V3_MCF1024/production/_ext/894334124/plib_uart1.o
                0x9d006ca4                UART1_Initialize

.rodata         0x9d006ce0       0x38
 .rodata        0x9d006ce0       0x38 /opt/microchip/xc32/v2.50/bin/bin/../../lib/gcc/pic32mx/4.8.3/../../../../pic32mx/lib/fpu64/libmfd.a(k_sin.o)

.text.send_diag_data
                0x9d006d18       0x34
 .text.send_diag_data
                0x9d006d18       0x34 build/V3_MCF1024/production/_ext/1375476428/diagnostics.o
                0x9d006d18                send_diag_data

.text           0x9d006d4c       0x34
 .text          0x9d006d4c       0x34 /opt/microchip/xc32/v2.50/bin/bin/../../lib/gcc/pic32mx/4.8.3/../../../../pic32mx/lib/fpu64/libmfd.a(sqrtfd.o)
                0x9d006d4c                _sqrtfd

.text.GPIO_immob_DIS
                0x9d006d80       0x30
 .text.GPIO_immob_DIS
                0x9d006d80       0x30 build/V3_MCF1024/production/_ext/1639450193/driver_GPIO.o
                0x9d006d80                GPIO_immob_DIS

.text.CANbus_write
                0x9d006db0       0x30
 .text.CANbus_write
                0x9d006db0       0x30 build/V3_MCF1024/production/_ext/1639450193/driver_CANbus.o
                0x9d006db0                CANbus_write

.text._general_exception_handler
                0x9d006de0       0x24
 .text._general_exception_handler
                0x9d006de0       0x24 build/V3_MCF1024/production/_ext/559960290/exceptions.o
                0x9d006de0                _general_exception_handler

.text._bootstrap_exception_handler
                0x9d006e04       0x24
 .text._bootstrap_exception_handler
                0x9d006e04       0x24 build/V3_MCF1024/production/_ext/559960290/exceptions.o
                0x9d006e04                _bootstrap_exception_handler

.text.send_measured_angle
                0x9d006e28       0x24
 .text.send_measured_angle
                0x9d006e28       0x24 build/V3_MCF1024/production/_ext/1375476428/tuning.o
                0x9d006e28                send_measured_angle

.text.device_state_send
                0x9d006e4c       0x20
 .text.device_state_send
                0x9d006e4c       0x20 build/V3_MCF1024/production/_ext/1375476428/device_stat.o
                0x9d006e4c                device_state_send

.text.CAN_immob_DIS
                0x9d006e6c       0x20
 .text.CAN_immob_DIS
                0x9d006e6c       0x20 build/V3_MCF1024/production/_ext/1375476428/VCU_CANdata.o
                0x9d006e6c                CAN_immob_DIS

.rodata         0x9d006e90       0x20
 .rodata        0x9d006e90       0x20 build/V3_MCF1024/production/_ext/1375476428/VCU_CANdata.o

.text.MCPWM_Start
                0x9d006eb0       0x1c
 .text.MCPWM_Start
                0x9d006eb0       0x1c build/V3_MCF1024/production/_ext/1961884374/plib_mcpwm.o
                0x9d006eb0                MCPWM_Start

.text.A3_action
                0x9d006ecc       0x1c
 .text.A3_action
                0x9d006ecc       0x1c build/V3_MCF1024/production/_ext/1375476428/VCU_CANdata.o
                0x9d006ecc                A3_action

.text.fault     0x9d006ee8       0x1c
 .text.fault    0x9d006ee8       0x1c build/V3_MCF1024/production/_ext/1200941409/fault.o
                0x9d006ee8                fault

.text._sqrtx    0x9d006f04       0x1c
 .text._sqrtx   0x9d006f04       0x1c /opt/microchip/xc32/v2.50/bin/bin/../../lib/gcc/pic32mx/4.8.3/../../../../pic32mx/lib/fpu64/libmfd.a(pic32_w_sqrt.o)
                0x9d006f04                _sqrtx

.text           0x9d006f20       0x18
 .text          0x9d006f20       0x18 /opt/microchip/xc32/v2.50/bin/bin/../../lib/gcc/pic32mx/4.8.3/../../../../pic32mx/lib/fpu64/libpic32.a(default-nmi-handler.o)
                0x9d006f20                _nmi_handler

.text._fabsx    0x9d006f38       0x18
 .text._fabsx   0x9d006f38       0x18 /opt/microchip/xc32/v2.50/bin/bin/../../lib/gcc/pic32mx/4.8.3/../../../../pic32mx/lib/fpu64/libmfd.a(s_fabs.o)
                0x9d006f38                _fabsx

.rodata         0x9d006f50       0x14
 .rodata        0x9d006f50       0x14 build/V3_MCF1024/production/_ext/1639450193/driver_PWM.o

.text.torque_control
                0x9d006f64       0x14
 .text.torque_control
                0x9d006f64       0x14 build/V3_MCF1024/production/_ext/1200941409/application_software.o
                0x9d006f64                torque_control

.rodata         0x9d006f78       0x10
 .rodata        0x9d006f78       0x10 build/V3_MCF1024/production/_ext/1971181624/plib_canfd1.o

.text.EEPROM_IsBusy
                0x9d006f88       0x10
 .text.EEPROM_IsBusy
                0x9d006f88       0x10 build/V3_MCF1024/production/_ext/916064250/plib_eeprom.o
                0x9d006f88                EEPROM_IsBusy

.rodata         0x9d006f98        0xc
 .rodata        0x9d006f98        0xc build/V3_MCF1024/production/_ext/1639450193/driver_GPIO.o

.text.send_data_uart
                0x9d006fa4        0xc
 .text.send_data_uart
                0x9d006fa4        0xc build/V3_MCF1024/production/_ext/1639450193/driver_UART.o
                0x9d006fa4                send_data_uart

.text._on_reset
                0x9d000178        0x8
 .text._on_reset
                0x9d000178        0x8 /opt/microchip/xc32/v2.50/bin/bin/../../lib/gcc/pic32mx/4.8.3/../../../../pic32mx/lib/fpu64/libpic32.a(default-on-reset.o)
                0x9d000178                _on_reset

.text._on_bootstrap
                0x9d006fb0        0x8
 .text._on_bootstrap
                0x9d006fb0        0x8 /opt/microchip/xc32/v2.50/bin/bin/../../lib/gcc/pic32mx/4.8.3/../../../../pic32mx/lib/fpu64/libpic32.a(default-on-bootstrap.o)
                0x9d006fb0                _on_bootstrap
